(dp0
S'METTS MARK'
p1
(dp2
S'to_messages'
p3
F807.0
sS'deferral_payments'
p4
F690646.1081081082
sS'expenses'
p5
F94299.0
sS'poi'
p6
F0.0
sS'deferred_income'
p7
F-521774.0425531915
sS'from_poi_to_this_person'
p8
F38.0
sS'fraction_from_poi'
p9
F0.04708798017348203
sS'Outlier'
p10
I00
sS'shared_receipt_with_poi'
p11
F702.0
sS'from_messages'
p12
F29.0
sS'other'
p13
F1740.0
sS'long_term_incentive'
p14
F732889.328125
sS'fraction_shared_receipt_with_poi'
p15
F0.8698884758364313
sS'bonus'
p16
F600000.0
sS'total_stock_value'
p17
F585062.0
sS'fraction_salary'
p18
F0.34448926237513267
sS'from_this_person_to_poi'
p19
F1.0
sS'restricted_stock'
p20
F585062.0
sS'fraction_exercised'
p21
F0.7184999490720799
sS'salary'
p22
F365788.0
sS'total_payments'
p23
F1061827.0
sS'fraction_to_poi'
p24
F0.034482758620689655
sS'exercised_stock_options'
p25
F2887651.282828283
sS'fraction_bonus'
p26
F0.5650638004119315
ssS'BAXTER JOHN C'
p27
(dp28
g3
F2078.0238095238096
sg4
F1295738.0
sg5
F11200.0
sg6
F0.0
sg7
F-1386055.0
sg8
F63.55952380952381
sg9
F0.03798717882302457
sg10
I00
sg11
F1163.5
sg12
F622.6904761904761
sg13
F2660303.0
sg14
F1586055.0
sg15
F0.60219169025735
sg16
F1200000.0
sg17
F10623258.0
sg18
F0.047406059588491506
sg19
F42.13095238095238
sg20
F3942714.0
sg21
F0.6288601858299968
sg22
F267102.0
sg23
F5634343.0
sg24
F0.1846258858185806
sg25
F6680544.0
sg26
F0.21297957898551792
ssS'ELLIOTT STEVEN'
p29
(dp30
g3
F2078.0238095238096
sg4
F690646.1081081082
sg5
F78552.0
sg6
F0.0
sg7
F-400729.0
sg8
F63.55952380952381
sg9
F0.03798717882302457
sg10
I00
sg11
F1163.5
sg12
F622.6904761904761
sg13
F12961.0
sg14
F732889.328125
sg15
F0.60219169025735
sg16
F350000.0
sg17
F6678735.0
sg18
F0.8073727712835046
sg19
F42.13095238095238
sg20
F1788391.0
sg21
F0.7322260877246963
sg22
F170941.0
sg23
F211725.0
sg24
F0.1846258858185806
sg25
F4890344.0
sg26
F1.6530877317274766
ssS'CORDES WILLIAM R'
p31
(dp32
g3
F764.0
sg4
F690646.1081081082
sg5
F53839.37634408602
sg6
F0.0
sg7
F-521774.0425531915
sg8
F10.0
sg9
F0.013089005235602094
sg10
I00
sg11
F58.0
sg12
F12.0
sg13
F391555.2
sg14
F732889.328125
sg15
F0.07591623036649214
sg16
F1191795.2375
sg17
F1038185.0
sg18
F0.23289074022706455
sg19
F0.0
sg20
F386335.0
sg21
F0.6278746080900803
sg22
F275734.376344086
sg23
F2398323.0
sg24
F0.0
sg25
F651850.0
sg26
F0.6124139535582868
ssS'HANNON KEVIN P'
p33
(dp34
g3
F1045.0
sg4
F690646.1081081082
sg5
F34039.0
sg6
F1.0
sg7
F-3117011.0
sg8
F32.0
sg9
F0.03062200956937799
sg10
I00
sg11
F1035.0
sg12
F32.0
sg13
F11350.0
sg14
F1617011.0
sg15
F0.9904306220095693
sg16
F1500000.0
sg17
F6391065.0
sg18
F0.8427716310680957
sg19
F21.0
sg20
F853064.0
sg21
F0.8665224027607292
sg22
F243293.0
sg23
F288682.0
sg24
F0.65625
sg25
F5538001.0
sg26
F5.196028848352166
ssS'MORDAUNT KRISTINA M'
p35
(dp36
g3
F2078.0238095238096
sg4
F690646.1081081082
sg5
F35018.0
sg6
F0.0
sg7
F-521774.0425531915
sg8
F63.55952380952381
sg9
F0.03798717882302457
sg10
I00
sg11
F1163.5
sg12
F622.6904761904761
sg13
F1411.0
sg14
F732889.328125
sg15
F0.60219169025735
sg16
F325000.0
sg17
F208510.0
sg18
F0.42495409866321304
sg19
F42.13095238095238
sg20
F208510.0
sg21
F0.7184999490720799
sg22
F267093.0
sg23
F628522.0
sg24
F0.1846258858185806
sg25
F2887651.282828283
sg26
F0.5170861163173286
ssS'MEYER ROCKFORD G'
p37
(dp38
g3
F232.0
sg4
F1848227.0
sg5
F53839.37634408602
sg6
F0.0
sg7
F-521774.0425531915
sg8
F0.0
sg9
F0.0
sg10
I00
sg11
F22.0
sg12
F28.0
sg13
F391555.2
sg14
F732889.328125
sg15
F0.09482758620689655
sg16
F1191795.2375
sg17
F955873.0
sg18
F0.23289074022706455
sg19
F0.0
sg20
F462384.0
sg21
F0.5162704668925684
sg22
F275734.376344086
sg23
F1848227.0
sg24
F0.0
sg25
F493489.0
sg26
F0.6124139535582868
ssS'MCMAHON JEFFREY'
p39
(dp40
g3
F2355.0
sg4
F690646.1081081082
sg5
F137108.0
sg6
F0.0
sg7
F-521774.0425531915
sg8
F58.0
sg9
F0.024628450106157114
sg10
I00
sg11
F2228.0
sg12
F48.0
sg13
F297353.0
sg14
F694862.0
sg15
F0.9460721868365181
sg16
F2600000.0
sg17
F1662855.0
sg18
F0.09035821756873738
sg19
F26.0
sg20
F558801.0
sg21
F0.6639508556067727
sg22
F370448.0
sg23
F4099771.0
sg24
F0.5416666666666666
sg25
F1104054.0
sg26
F0.6341817628350461
ssS'HORTON STANLEY C'
p41
(dp42
g3
F2350.0
sg4
F3131860.0
sg5
F53839.37634408602
sg6
F0.0
sg7
F-521774.0425531915
sg8
F44.0
sg9
F0.01872340425531915
sg10
I00
sg11
F1074.0
sg12
F1073.0
sg13
F391555.2
sg14
F732889.328125
sg15
F0.4570212765957447
sg16
F1191795.2375
sg17
F7256648.0
sg18
F0.23289074022706455
sg19
F15.0
sg20
F2046079.0
sg21
F0.7180407538025821
sg22
F275734.376344086
sg23
F3131860.0
sg24
F0.013979496738117428
sg25
F5210569.0
sg26
F0.6124139535582868
ssS'PIPER GREGORY F'
p43
(dp44
g3
F1238.0
sg4
F1130036.0
sg5
F43057.0
sg6
F0.0
sg7
F-33333.0
sg8
F61.0
sg9
F0.049273021001615507
sg10
I00
sg11
F742.0
sg12
F222.0
sg13
F778.0
sg14
F732889.328125
sg15
F0.5993537964458805
sg16
F400000.0
sg17
F880290.0
sg18
F0.11342524785210191
sg19
F48.0
sg20
F409554.0
sg21
F1.0
sg22
F197091.0
sg23
F1737629.0
sg24
F0.21621621621621623
sg25
F880290.0
sg26
F0.23019873632403695
ssS'HUMPHREY GENE E'
p45
(dp46
g3
F128.0
sg4
F2964506.0
sg5
F4994.0
sg6
F0.0
sg7
F-521774.0425531915
sg8
F10.0
sg9
F0.078125
sg10
I00
sg11
F119.0
sg12
F17.0
sg13
F391555.2
sg14
F732889.328125
sg15
F0.9296875
sg16
F1191795.2375
sg17
F2282768.0
sg18
F0.04216598542556925
sg19
F17.0
sg20
F1154065.8785046728
sg21
F1.0
sg22
F130724.0
sg23
F3100224.0
sg24
F1.0
sg25
F2282768.0
sg26
F0.6124139535582868
ssS'UMANOFF ADAM S'
p47
(dp48
g3
F111.0
sg4
F690646.1081081082
sg5
F53122.0
sg6
F0.0
sg7
F-521774.0425531915
sg8
F12.0
sg9
F0.10810810810810811
sg10
I00
sg11
F41.0
sg12
F18.0
sg13
F391555.2
sg14
F732889.328125
sg15
F0.36936936936936937
sg16
F788750.0
sg17
F3261185.0241935486
sg18
F0.2552843485976075
sg19
F0.0
sg20
F1154065.8785046728
sg21
F0.7184999490720799
sg22
F288589.0
sg23
F1130461.0
sg24
F0.0
sg25
F2887651.282828283
sg26
F0.6977242027809893
ssS'BLACHMAN JEREMY M'
p49
(dp50
g3
F2475.0
sg4
F690646.1081081082
sg5
F84208.0
sg6
F0.0
sg7
F-521774.0425531915
sg8
F25.0
sg9
F0.010101010101010102
sg10
I00
sg11
F2326.0
sg12
F14.0
sg13
F272.0
sg14
F831809.0
sg15
F0.9397979797979797
sg16
F850000.0
sg17
F954354.0
sg18
F0.12335799209364538
sg19
F2.0
sg20
F189041.0
sg21
F0.8019173178925221
sg22
F248546.0
sg23
F2014835.0
sg24
F0.14285714285714285
sg25
F765313.0
sg26
F0.4218707735372872
ssS'SUNDE MARTIN'
p51
(dp52
g3
F2647.0
sg4
F690646.1081081082
sg5
F53839.37634408602
sg6
F0.0
sg7
F-521774.0425531915
sg8
F37.0
sg9
F0.013978088401964487
sg10
I00
sg11
F2565.0
sg12
F38.0
sg13
F111122.0
sg14
F476451.0
sg15
F0.9690215338118625
sg16
F700000.0
sg17
F698920.0
sg18
F0.16665124115001434
sg19
F13.0
sg20
F698920.0
sg21
F0.7184999490720799
sg22
F257486.0
sg23
F1545059.0
sg24
F0.34210526315789475
sg25
F2887651.282828283
sg26
F0.4530571324460749
ssS'GIBBS DANA R'
p53
(dp54
g3
F169.0
sg4
F504610.0
sg5
F53839.37634408602
sg6
F0.0
sg7
F-521774.0425531915
sg8
F0.0
sg9
F0.0
sg10
I00
sg11
F23.0
sg12
F12.0
sg13
F391555.2
sg14
F461912.0
sg15
F0.13609467455621302
sg16
F1191795.2375
sg17
F2218275.0
sg18
F0.23289074022706455
sg19
F0.0
sg20
F1154065.8785046728
sg21
F1.0
sg22
F275734.376344086
sg23
F966522.0
sg24
F0.0
sg25
F2218275.0
sg26
F0.6124139535582868
ssS'LOWRY CHARLES P'
p55
(dp56
g3
F2078.0238095238096
sg4
F690646.1081081082
sg5
F53839.37634408602
sg6
F0.0
sg7
F-521774.0425531915
sg8
F63.55952380952381
sg9
F0.03798717882302457
sg10
I00
sg11
F1163.5
sg12
F622.6904761904761
sg13
F391555.2
sg14
F732889.328125
sg15
F0.60219169025735
sg16
F1191795.2375
sg17
F372205.0
sg18
F0.23289074022706455
sg19
F42.13095238095238
sg20
F153686.0
sg21
F1.0
sg22
F275734.376344086
sg23
F2398323.0
sg24
F0.1846258858185806
sg25
F372205.0
sg26
F0.6124139535582868
ssS'COLWELL WESLEY'
p57
(dp58
g3
F1758.0
sg4
F27610.0
sg5
F16514.0
sg6
F1.0
sg7
F-144062.0
sg8
F240.0
sg9
F0.13651877133105803
sg10
I01
sg11
F1132.0
sg12
F40.0
sg13
F101740.0
sg14
F732889.328125
sg15
F0.6439135381114903
sg16
F1200000.0
sg17
F698242.0
sg18
F0.19360765031428986
sg19
F11.0
sg20
F698242.0
sg21
F0.7184999490720799
sg22
F288542.0
sg23
F1490344.0
sg24
F0.275
sg25
F2887651.282828283
sg26
F0.8051832328643588
ssS'MULLER MARK S'
p59
(dp60
g3
F136.0
sg4
F842924.0
sg5
F53839.37634408602
sg6
F0.0
sg7
F-719000.0
sg8
F12.0
sg9
F0.08823529411764706
sg10
I00
sg11
F114.0
sg12
F16.0
sg13
F947.0
sg14
F1725545.0
sg15
F0.8382352941176471
sg16
F1100000.0
sg17
F1416848.0
sg18
F0.07859103642331366
sg19
F0.0
sg20
F360528.0
sg21
F0.7455422176549636
sg22
F251654.0
sg23
F3202070.0
sg24
F0.0
sg25
F1056320.0
sg26
F0.3435277804670104
ssS'JACKSON CHARLENE R'
p61
(dp62
g3
F258.0
sg4
F690646.1081081082
sg5
F10181.0
sg6
F0.0
sg7
F-521774.0425531915
sg8
F25.0
sg9
F0.09689922480620156
sg10
I00
sg11
F117.0
sg12
F56.0
sg13
F2435.0
sg14
F732889.328125
sg15
F0.45348837209302323
sg16
F250000.0
sg17
F725735.0
sg18
F0.5235334032447104
sg19
F19.0
sg20
F540672.0
sg21
F0.25500079230021977
sg22
F288558.0
sg23
F551174.0
sg24
F0.3392857142857143
sg25
F185063.0
sg26
F0.453577273238578
ssS'WESTFAHL RICHARD K'
p63
(dp64
g3
F2078.0238095238096
sg4
F690646.1081081082
sg5
F51870.0
sg6
F0.0
sg7
F-10800.0
sg8
F63.55952380952381
sg9
F0.03798717882302457
sg10
I00
sg11
F1163.5
sg12
F622.6904761904761
sg13
F401130.0
sg14
F256191.0
sg15
F0.60219169025735
sg16
F1191795.2375
sg17
F384930.0
sg18
F0.08363872542266133
sg19
F42.13095238095238
sg20
F384930.0
sg21
F0.7184999490720799
sg22
F63744.0
sg23
F762135.0
sg24
F0.1846258858185806
sg25
F2887651.282828283
sg26
F0.6124139535582868
ssS'WALTERS GARETH W'
p65
(dp66
g3
F2078.0238095238096
sg4
F53625.0
sg5
F33785.0
sg6
F0.0
sg7
F-521774.0425531915
sg8
F63.55952380952381
sg9
F0.03798717882302457
sg10
I00
sg11
F1163.5
sg12
F622.6904761904761
sg13
F391555.2
sg14
F732889.328125
sg15
F0.60219169025735
sg16
F1191795.2375
sg17
F1030329.0
sg18
F0.23289074022706455
sg19
F42.13095238095238
sg20
F1154065.8785046728
sg21
F1.0
sg22
F275734.376344086
sg23
F87410.0
sg24
F0.1846258858185806
sg25
F1030329.0
sg26
F0.6124139535582868
ssS'WALLS JR ROBERT H'
p67
(dp68
g3
F671.0
sg4
F690646.1081081082
sg5
F50936.0
sg6
F0.0
sg7
F-521774.0425531915
sg8
F17.0
sg9
F0.02533532041728763
sg10
I00
sg11
F215.0
sg12
F146.0
sg13
F2.0
sg14
F540751.0
sg15
F0.3204172876304024
sg16
F850000.0
sg17
F5898997.0
sg18
F0.1985184402761872
sg19
F0.0
sg20
F1552453.0
sg21
F0.7368276335790643
sg22
F357091.0
sg23
F1798780.0
sg24
F0.0
sg25
F4346544.0
sg26
F0.47254250102847484
ssS'KITCHEN LOUISE'
p69
(dp70
g3
F8305.0
sg4
F690646.1081081082
sg5
F5774.0
sg6
F0.0
sg7
F-521774.0425531915
sg8
F251.0
sg9
F0.030222757375075255
sg10
I01
sg11
F3669.0
sg12
F1728.0
sg13
F93925.0
sg14
F732889.328125
sg15
F0.441782059000602
sg16
F3100000.0
sg17
F547143.0
sg18
F0.07819964674439903
sg19
F194.0
sg20
F466101.0
sg21
F0.14811849918577044
sg22
F271442.0
sg23
F3471141.0
sg24
F0.11226851851851852
sg25
F81042.0
sg26
F0.8930780973748977
ssS'CHAN RONNIE'
p71
(dp72
g3
F2078.0238095238096
sg4
F690646.1081081082
sg5
F53839.37634408602
sg6
F0.0
sg7
F-98784.0
sg8
F63.55952380952381
sg9
F0.03798717882302457
sg10
I00
sg11
F1163.5
sg12
F622.6904761904761
sg13
F391555.2
sg14
F732889.328125
sg15
F0.60219169025735
sg16
F1191795.2375
sg17
F3261185.0241935486
sg18
F0.23289074022706455
sg19
F42.13095238095238
sg20
F32460.0
sg21
F0.7184999490720799
sg22
F275734.376344086
sg23
F2398323.0
sg24
F0.1846258858185806
sg25
F2887651.282828283
sg26
F0.6124139535582868
ssS'BELFER ROBERT'
p73
(dp74
g3
F2078.0238095238096
sg4
F-102500.0
sg5
F53839.37634408602
sg6
F0.0
sg7
F-521774.0425531915
sg8
F63.55952380952381
sg9
F0.03798717882302457
sg10
I00
sg11
F1163.5
sg12
F622.6904761904761
sg13
F391555.2
sg14
F732889.328125
sg15
F0.60219169025735
sg16
F1191795.2375
sg17
F-44093.0
sg18
F0.23289074022706455
sg19
F42.13095238095238
sg20
F1154065.8785046728
sg21
F-0.07450162157258522
sg22
F275734.376344086
sg23
F102500.0
sg24
F0.1846258858185806
sg25
F3285.0
sg26
F0.6124139535582868
ssS'SHANKMAN JEFFREY A'
p75
(dp76
g3
F3221.0
sg4
F690646.1081081082
sg5
F178979.0
sg6
F0.0
sg7
F-521774.0425531915
sg8
F94.0
sg9
F0.029183483390251473
sg10
I00
sg11
F1730.0
sg12
F2681.0
sg13
F1191.0
sg14
F554422.0
sg15
F0.5371002794163303
sg16
F2000000.0
sg17
F2072035.0
sg18
F0.10007891527369252
sg19
F83.0
sg20
F630137.0
sg21
F0.6958849633331483
sg22
F304110.0
sg23
F3038702.0
sg24
F0.030958597538232
sg25
F1441898.0
sg26
F0.6581757605714545
ssS'WODRASKA JOHN'
p77
(dp78
g3
F2078.0238095238096
sg4
F690646.1081081082
sg5
F53839.37634408602
sg6
F0.0
sg7
F-521774.0425531915
sg8
F63.55952380952381
sg9
F0.03798717882302457
sg10
I00
sg11
F1163.5
sg12
F622.6904761904761
sg13
F189583.0
sg14
F732889.328125
sg15
F0.60219169025735
sg16
F1191795.2375
sg17
F3261185.0241935486
sg18
F0.23289074022706455
sg19
F42.13095238095238
sg20
F1154065.8785046728
sg21
F0.7184999490720799
sg22
F275734.376344086
sg23
F189583.0
sg24
F0.1846258858185806
sg25
F2887651.282828283
sg26
F0.6124139535582868
ssS'BERGSIEKER RICHARD P'
p79
(dp80
g3
F383.0
sg4
F690646.1081081082
sg5
F59175.0
sg6
F0.0
sg7
F-485813.0
sg8
F4.0
sg9
F0.010443864229765013
sg10
I00
sg11
F233.0
sg12
F59.0
sg13
F427316.0
sg14
F180250.0
sg15
F0.608355091383812
sg16
F250000.0
sg17
F659249.0
sg18
F0.3036632463440252
sg19
F0.0
sg20
F659249.0
sg21
F0.7184999490720799
sg22
F187922.0
sg23
F618850.0
sg24
F0.0
sg25
F2887651.282828283
sg26
F0.4039751151329078
ssS'URQUHART JOHN A'
p81
(dp82
g3
F2078.0238095238096
sg4
F690646.1081081082
sg5
F228656.0
sg6
F0.0
sg7
F-36666.0
sg8
F63.55952380952381
sg9
F0.03798717882302457
sg10
I00
sg11
F1163.5
sg12
F622.6904761904761
sg13
F391555.2
sg14
F732889.328125
sg15
F0.60219169025735
sg16
F1191795.2375
sg17
F3261185.0241935486
sg18
F0.23289074022706455
sg19
F42.13095238095238
sg20
F1154065.8785046728
sg21
F0.7184999490720799
sg22
F275734.376344086
sg23
F228656.0
sg24
F0.1846258858185806
sg25
F2887651.282828283
sg26
F0.6124139535582868
ssS'BIBI PHILIPPE A'
p83
(dp84
g3
F1607.0
sg4
F690646.1081081082
sg5
F38559.0
sg6
F0.0
sg7
F-521774.0425531915
sg8
F23.0
sg9
F0.01431238332296204
sg10
I00
sg11
F1336.0
sg12
F40.0
sg13
F425688.0
sg14
F369721.0
sg15
F0.8313627878033603
sg16
F1000000.0
sg17
F1843816.0
sg18
F0.10432981554439774
sg19
F8.0
sg20
F378082.0
sg21
F0.7949459165122768
sg22
F213625.0
sg23
F2047593.0
sg24
F0.2
sg25
F1465734.0
sg26
F0.4883783056496091
ssS'PIRO JIM'
p85
(dp86
g3
F58.0
sg4
F690646.1081081082
sg5
F53839.37634408602
sg6
F0.0
sg7
F-521774.0425531915
sg8
F0.0
sg9
F0.0
sg10
I00
sg11
F3.0
sg12
F16.0
sg13
F391555.2
sg14
F732889.328125
sg15
F0.05172413793103448
sg16
F1191795.2375
sg17
F47304.0
sg18
F0.23289074022706455
sg19
F1.0
sg20
F47304.0
sg21
F0.7184999490720799
sg22
F275734.376344086
sg23
F2398323.0
sg24
F0.0625
sg25
F2887651.282828283
sg26
F0.6124139535582868
ssS'RIEKER PAULA H'
p87
(dp88
g3
F1328.0
sg4
F214678.0
sg5
F33271.0
sg6
F1.0
sg7
F-100000.0
sg8
F35.0
sg9
F0.02635542168674699
sg10
I00
sg11
F1258.0
sg12
F82.0
sg13
F1950.0
sg14
F732889.328125
sg15
F0.947289156626506
sg16
F700000.0
sg17
F1918887.0
sg18
F0.22673187153125285
sg19
F48.0
sg20
F283649.0
sg21
F0.8521804566918219
sg22
F249201.0
sg23
F1099100.0
sg24
F0.5853658536585366
sg25
F1635238.0
sg26
F0.6368847238649804
ssS'WHALEY DAVID A'
p89
(dp90
g3
F2078.0238095238096
sg4
F690646.1081081082
sg5
F53839.37634408602
sg6
F0.0
sg7
F-521774.0425531915
sg8
F63.55952380952381
sg9
F0.03798717882302457
sg10
I00
sg11
F1163.5
sg12
F622.6904761904761
sg13
F391555.2
sg14
F732889.328125
sg15
F0.60219169025735
sg16
F1191795.2375
sg17
F98718.0
sg18
F0.23289074022706455
sg19
F42.13095238095238
sg20
F1154065.8785046728
sg21
F1.0
sg22
F275734.376344086
sg23
F2398323.0
sg24
F0.1846258858185806
sg25
F98718.0
sg26
F0.6124139535582868
ssS'BECK SALLY W'
p91
(dp92
g3
F7315.0
sg4
F690646.1081081082
sg5
F37172.0
sg6
F0.0
sg7
F-521774.0425531915
sg8
F144.0
sg9
F0.01968557758031442
sg10
I00
sg11
F2639.0
sg12
F4343.0
sg13
F566.0
sg14
F732889.328125
sg15
F0.36076555023923446
sg16
F700000.0
sg17
F126027.0
sg18
F0.23871389830228631
sg19
F386.0
sg20
F126027.0
sg21
F0.7184999490720799
sg22
F231330.0
sg23
F969068.0
sg24
F0.08887865530739121
sg25
F2887651.282828283
sg26
F0.7223435300721931
ssS'HAUG DAVID L'
p93
(dp94
g3
F573.0
sg4
F690646.1081081082
sg5
F475.0
sg6
F0.0
sg7
F-521774.0425531915
sg8
F4.0
sg9
F0.006980802792321117
sg10
I00
sg11
F471.0
sg12
F19.0
sg13
F391555.2
sg14
F732889.328125
sg15
F0.8219895287958116
sg16
F1191795.2375
sg17
F2217299.0
sg18
F0.23289074022706455
sg19
F7.0
sg20
F2217299.0
sg21
F0.7184999490720799
sg22
F275734.376344086
sg23
F475.0
sg24
F0.3684210526315789
sg25
F2887651.282828283
sg26
F0.6124139535582868
ssS'ECHOLS JOHN B'
p95
(dp96
g3
F2078.0238095238096
sg4
F690646.1081081082
sg5
F21530.0
sg6
F0.0
sg7
F-521774.0425531915
sg8
F63.55952380952381
sg9
F0.03798717882302457
sg10
I00
sg11
F1163.5
sg12
F622.6904761904761
sg13
F53775.0
sg14
F2234774.0
sg15
F0.60219169025735
sg16
F200000.0
sg17
F1008941.0
sg18
F0.06769058998842635
sg19
F42.13095238095238
sg20
F407503.0
sg21
F0.5961081966140735
sg22
F182245.0
sg23
F2692324.0
sg24
F0.1846258858185806
sg25
F601438.0
sg26
F0.07428526432925606
ssS'MENDELSOHN JOHN'
p97
(dp98
g3
F2078.0238095238096
sg4
F690646.1081081082
sg5
F148.0
sg6
F0.0
sg7
F-103750.0
sg8
F63.55952380952381
sg9
F0.03798717882302457
sg10
I00
sg11
F1163.5
sg12
F622.6904761904761
sg13
F391555.2
sg14
F732889.328125
sg15
F0.60219169025735
sg16
F1191795.2375
sg17
F3261185.0241935486
sg18
F0.23289074022706455
sg19
F42.13095238095238
sg20
F1154065.8785046728
sg21
F0.7184999490720799
sg22
F275734.376344086
sg23
F148.0
sg24
F0.1846258858185806
sg25
F2887651.282828283
sg26
F0.6124139535582868
ssS'HICKERSON GARY J'
p99
(dp100
g3
F1320.0
sg4
F690646.1081081082
sg5
F98849.0
sg6
F0.0
sg7
F-521774.0425531915
sg8
F40.0
sg9
F0.030303030303030304
sg10
I00
sg11
F900.0
sg12
F27.0
sg13
F1936.0
sg14
F69223.0
sg15
F0.6818181818181818
sg16
F1700000.0
sg17
F441096.0
sg18
F0.10173331104488624
sg19
F1.0
sg20
F441096.0
sg21
F0.7184999490720799
sg22
F211788.0
sg23
F2081796.0
sg24
F0.037037037037037035
sg25
F2887651.282828283
sg26
F0.8166025873812804
ssS'CLINE KENNETH W'
p101
(dp102
g3
F2078.0238095238096
sg4
F690646.1081081082
sg5
F53839.37634408602
sg6
F0.0
sg7
F-521774.0425531915
sg8
F63.55952380952381
sg9
F0.03798717882302457
sg10
I00
sg11
F1163.5
sg12
F622.6904761904761
sg13
F391555.2
sg14
F732889.328125
sg15
F0.60219169025735
sg16
F1191795.2375
sg17
F189518.0
sg18
F0.23289074022706455
sg19
F42.13095238095238
sg20
F662086.0
sg21
F0.7184999490720799
sg22
F275734.376344086
sg23
F2398323.0
sg24
F0.1846258858185806
sg25
F2887651.282828283
sg26
F0.6124139535582868
ssS'LEWIS RICHARD'
p103
(dp104
g3
F952.0
sg4
F690646.1081081082
sg5
F53839.37634408602
sg6
F0.0
sg7
F-521774.0425531915
sg8
F10.0
sg9
F0.01050420168067227
sg10
I00
sg11
F739.0
sg12
F26.0
sg13
F391555.2
sg14
F732889.328125
sg15
F0.7762605042016807
sg16
F1191795.2375
sg17
F850477.0
sg18
F0.23289074022706455
sg19
F0.0
sg20
F1154065.8785046728
sg21
F1.0
sg22
F275734.376344086
sg23
F2398323.0
sg24
F0.0
sg25
F850477.0
sg26
F0.6124139535582868
ssS'HAYES ROBERT E'
p105
(dp106
g3
F504.0
sg4
F7961.0
sg5
F53839.37634408602
sg6
F0.0
sg7
F-521774.0425531915
sg8
F16.0
sg9
F0.031746031746031744
sg10
I00
sg11
F50.0
sg12
F12.0
sg13
F391555.2
sg14
F732889.328125
sg15
F0.0992063492063492
sg16
F1191795.2375
sg17
F151418.0
sg18
F0.23289074022706455
sg19
F0.0
sg20
F151418.0
sg21
F0.7184999490720799
sg22
F275734.376344086
sg23
F7961.0
sg24
F0.0
sg25
F2887651.282828283
sg26
F0.6124139535582868
ssS'KOPPER MICHAEL J'
p107
(dp108
g3
F2078.0238095238096
sg4
F690646.1081081082
sg5
F118134.0
sg6
F1.0
sg7
F-521774.0425531915
sg8
F63.55952380952381
sg9
F0.03798717882302457
sg10
I00
sg11
F1163.5
sg12
F622.6904761904761
sg13
F907502.0
sg14
F602671.0
sg15
F0.60219169025735
sg16
F800000.0
sg17
F985032.0
sg18
F0.08456004873686766
sg19
F42.13095238095238
sg20
F985032.0
sg21
F0.7184999490720799
sg22
F224305.0
sg23
F2652612.0
sg24
F0.1846258858185806
sg25
F2887651.282828283
sg26
F0.30158952760524343
ssS'LEFF DANIEL P'
p109
(dp110
g3
F2822.0
sg4
F690646.1081081082
sg5
F53839.37634408602
sg6
F0.0
sg7
F-521774.0425531915
sg8
F67.0
sg9
F0.02374202693125443
sg10
I00
sg11
F2672.0
sg12
F63.0
sg13
F3083.0
sg14
F1387399.0
sg15
F0.9468462083628633
sg16
F1000000.0
sg17
F360528.0
sg18
F0.10274871369867744
sg19
F14.0
sg20
F360528.0
sg21
F0.7184999490720799
sg22
F273746.0
sg23
F2664228.0
sg24
F0.2222222222222222
sg25
F2887651.282828283
sg26
F0.3753432514034084
ssS'LAVORATO JOHN J'
p111
(dp112
g3
F7259.0
sg4
F690646.1081081082
sg5
F49537.0
sg6
F0.0
sg7
F-521774.0425531915
sg8
F528.0
sg9
F0.07273729163796666
sg10
I01
sg11
F3962.0
sg12
F2585.0
sg13
F1552.0
sg14
F2035380.0
sg15
F0.5458052073288332
sg16
F8000000.0
sg17
F5167144.0
sg18
F0.03254324841831629
sg19
F411.0
sg20
F1008149.0
sg21
F0.80489241252034
sg22
F339288.0
sg23
F10425757.0
sg24
F0.15899419729206962
sg25
F4158995.0
sg26
F0.767330372269371
ssS'BERBERIAN DAVID'
p113
(dp114
g3
F2078.0238095238096
sg4
F690646.1081081082
sg5
F11892.0
sg6
F0.0
sg7
F-521774.0425531915
sg8
F63.55952380952381
sg9
F0.03798717882302457
sg10
I00
sg11
F1163.5
sg12
F622.6904761904761
sg13
F391555.2
sg14
F732889.328125
sg15
F0.60219169025735
sg16
F1191795.2375
sg17
F2493616.0
sg18
F0.9479503138212663
sg19
F42.13095238095238
sg20
F869220.0
sg21
F0.6514218708895034
sg22
F216582.0
sg23
F228474.0
sg24
F0.1846258858185806
sg25
F1624396.0
sg26
F0.6124139535582868
ssS'DETMERING TIMOTHY J'
p115
(dp116
g3
F2078.0238095238096
sg4
F875307.0
sg5
F52255.0
sg6
F0.0
sg7
F-775241.0
sg8
F63.55952380952381
sg9
F0.03798717882302457
sg10
I00
sg11
F1163.5
sg12
F622.6904761904761
sg13
F1105.0
sg14
F415657.0
sg15
F0.60219169025735
sg16
F425000.0
sg17
F2027865.0
sg18
F0.17474927007935526
sg19
F42.13095238095238
sg20
F315068.0
sg21
F1.0
sg22
F210500.0
sg23
F1204583.0
sg24
F0.1846258858185806
sg25
F2027865.0
sg26
F0.3528191913716199
ssS'WAKEHAM JOHN'
p117
(dp118
g3
F2078.0238095238096
sg4
F690646.1081081082
sg5
F103773.0
sg6
F0.0
sg7
F-521774.0425531915
sg8
F63.55952380952381
sg9
F0.03798717882302457
sg10
I00
sg11
F1163.5
sg12
F622.6904761904761
sg13
F391555.2
sg14
F732889.328125
sg15
F0.60219169025735
sg16
F1191795.2375
sg17
F3261185.0241935486
sg18
F0.23289074022706455
sg19
F42.13095238095238
sg20
F1154065.8785046728
sg21
F0.7184999490720799
sg22
F275734.376344086
sg23
F213071.0
sg24
F0.1846258858185806
sg25
F2887651.282828283
sg26
F0.6124139535582868
ssS'POWERS WILLIAM'
p119
(dp120
g3
F653.0
sg4
F690646.1081081082
sg5
F53839.37634408602
sg6
F0.0
sg7
F-17500.0
sg8
F0.0
sg9
F0.0
sg10
I00
sg11
F12.0
sg12
F26.0
sg13
F391555.2
sg14
F732889.328125
sg15
F0.018376722817764167
sg16
F1191795.2375
sg17
F3261185.0241935486
sg18
F0.23289074022706455
sg19
F0.0
sg20
F1154065.8785046728
sg21
F0.7184999490720799
sg22
F275734.376344086
sg23
F2398323.0
sg24
F0.0
sg25
F2887651.282828283
sg26
F0.6124139535582868
ssS'GOLD JOSEPH'
p121
(dp122
g3
F2078.0238095238096
sg4
F690646.1081081082
sg5
F53839.37634408602
sg6
F0.0
sg7
F-521774.0425531915
sg8
F63.55952380952381
sg9
F0.03798717882302457
sg10
I00
sg11
F1163.5
sg12
F622.6904761904761
sg13
F819288.0
sg14
F304805.0
sg15
F0.60219169025735
sg16
F750000.0
sg17
F877611.0
sg18
F0.12709987503336093
sg19
F42.13095238095238
sg20
F441096.0
sg21
F0.4973900737342627
sg22
F272880.0
sg23
F2146973.0
sg24
F0.1846258858185806
sg25
F436515.0
sg26
F0.34932903208377564
ssS'BANNANTINE JAMES M'
p123
(dp124
g3
F566.0
sg4
F690646.1081081082
sg5
F56301.0
sg6
F0.0
sg7
F-5104.0
sg8
F39.0
sg9
F0.06890459363957598
sg10
I00
sg11
F465.0
sg12
F29.0
sg13
F864523.0
sg14
F732889.328125
sg15
F0.8215547703180212
sg16
F1191795.2375
sg17
F5243487.0
sg18
F0.0005206303884426602
sg19
F0.0
sg20
F1757552.0
sg21
F0.7716538631639595
sg22
F477.0
sg23
F916197.0
sg24
F0.0
sg25
F4046157.0
sg26
F0.6124139535582868
ssS'DUNCAN JOHN H'
p125
(dp126
g3
F2078.0238095238096
sg4
F690646.1081081082
sg5
F53839.37634408602
sg6
F0.0
sg7
F-25000.0
sg8
F63.55952380952381
sg9
F0.03798717882302457
sg10
I00
sg11
F1163.5
sg12
F622.6904761904761
sg13
F391555.2
sg14
F732889.328125
sg15
F0.60219169025735
sg16
F1191795.2375
sg17
F371750.0
sg18
F0.23289074022706455
sg19
F42.13095238095238
sg20
F1154065.8785046728
sg21
F1.0
sg22
F275734.376344086
sg23
F77492.0
sg24
F0.1846258858185806
sg25
F371750.0
sg26
F0.6124139535582868
ssS'SHAPIRO RICHARD S'
p127
(dp128
g3
F15149.0
sg4
F690646.1081081082
sg5
F137767.0
sg6
F0.0
sg7
F-521774.0425531915
sg8
F74.0
sg9
F0.0048848108786058485
sg10
I00
sg11
F4527.0
sg12
F1215.0
sg13
F705.0
sg14
F732889.328125
sg15
F0.29883160604660375
sg16
F650000.0
sg17
F987001.0
sg18
F0.25443384130082036
sg19
F65.0
sg20
F379164.0
sg21
F0.6158423345062467
sg22
F269076.0
sg23
F1057548.0
sg24
F0.053497942386831275
sg25
F607837.0
sg26
F0.6146293123338137
ssS'SHERRIFF JOHN R'
p129
(dp130
g3
F3187.0
sg4
F690646.1081081082
sg5
F53839.37634408602
sg6
F0.0
sg7
F-521774.0425531915
sg8
F28.0
sg9
F0.008785691873235017
sg10
I00
sg11
F2103.0
sg12
F92.0
sg13
F1852186.0
sg14
F554422.0
sg15
F0.6598682146219015
sg16
F1500000.0
sg17
F3128982.0
sg18
F0.09890233584629565
sg19
F23.0
sg20
F1293424.0
sg21
F0.5866310512492562
sg22
F428780.0
sg23
F4335388.0
sg24
F0.25
sg25
F1835558.0
sg26
F0.34598979376240374
ssS'SHELBY REX'
p131
(dp132
g3
F225.0
sg4
F690646.1081081082
sg5
F22884.0
sg6
F1.0
sg7
F-4167.0
sg8
F13.0
sg9
F0.057777777777777775
sg10
I00
sg11
F91.0
sg12
F39.0
sg13
F1573324.0
sg14
F732889.328125
sg15
F0.40444444444444444
sg16
F200000.0
sg17
F2493616.0
sg18
F0.10571664541627888
sg19
F14.0
sg20
F869220.0
sg21
F0.6514218708895034
sg22
F211844.0
sg23
F2003885.0
sg24
F0.358974358974359
sg25
F1624396.0
sg26
F0.09980612659908128
ssS'LEMAISTRE CHARLES'
p133
(dp134
g3
F2078.0238095238096
sg4
F690646.1081081082
sg5
F53839.37634408602
sg6
F0.0
sg7
F-25000.0
sg8
F63.55952380952381
sg9
F0.03798717882302457
sg10
I00
sg11
F1163.5
sg12
F622.6904761904761
sg13
F391555.2
sg14
F732889.328125
sg15
F0.60219169025735
sg16
F1191795.2375
sg17
F412878.0
sg18
F0.23289074022706455
sg19
F42.13095238095238
sg20
F1154065.8785046728
sg21
F1.0
sg22
F275734.376344086
sg23
F87492.0
sg24
F0.1846258858185806
sg25
F412878.0
sg26
F0.6124139535582868
ssS'DEFFNER JOSEPH M'
p135
(dp136
g3
F714.0
sg4
F690646.1081081082
sg5
F41626.0
sg6
F0.0
sg7
F-521774.0425531915
sg8
F115.0
sg9
F0.16106442577030813
sg10
I00
sg11
F552.0
sg12
F74.0
sg13
F25553.0
sg14
F335349.0
sg15
F0.773109243697479
sg16
F600000.0
sg17
F159211.0
sg18
F0.17053834487928257
sg19
F4.0
sg20
F141833.0
sg21
F0.10915074963413332
sg22
F206121.0
sg23
F1208649.0
sg24
F0.05405405405405406
sg25
F17378.0
sg26
F0.49642203815996205
ssS'KISHKILL JOSEPH G'
p137
(dp138
g3
F2078.0238095238096
sg4
F690646.1081081082
sg5
F116335.0
sg6
F0.0
sg7
F-51042.0
sg8
F63.55952380952381
sg9
F0.03798717882302457
sg10
I00
sg11
F1163.5
sg12
F622.6904761904761
sg13
F465357.0
sg14
F732889.328125
sg15
F0.60219169025735
sg16
F1191795.2375
sg17
F1034346.0
sg18
F0.2471939122934447
sg19
F42.13095238095238
sg20
F1034346.0
sg21
F0.7184999490720799
sg22
F174246.0
sg23
F704896.0
sg24
F0.1846258858185806
sg25
F2887651.282828283
sg26
F0.6124139535582868
ssS'WHALLEY LAWRENCE G'
p139
(dp140
g3
F6019.0
sg4
F690646.1081081082
sg5
F57838.0
sg6
F0.0
sg7
F-521774.0425531915
sg8
F186.0
sg9
F0.03090214321315833
sg10
I00
sg11
F3920.0
sg12
F556.0
sg13
F301026.0
sg14
F808346.0
sg15
F0.6512709752450573
sg16
F3000000.0
sg17
F6079137.0
sg18
F0.10910869608904103
sg19
F24.0
sg20
F2796177.0
sg21
F0.5400371796194098
sg22
F510364.0
sg23
F4677574.0
sg24
F0.04316546762589928
sg25
F3282960.0
sg26
F0.6413581057189047
ssS'HAYSLETT RODERICK J'
p141
(dp142
g3
F2649.0
sg4
F690646.1081081082
sg5
F53839.37634408602
sg6
F0.0
sg7
F-521774.0425531915
sg8
F35.0
sg9
F0.01321253303133258
sg10
I00
sg11
F571.0
sg12
F1061.0
sg13
F391555.2
sg14
F732889.328125
sg15
F0.21555303888259722
sg16
F1191795.2375
sg17
F346663.0
sg18
F0.23289074022706455
sg19
F38.0
sg20
F346663.0
sg21
F0.7184999490720799
sg22
F275734.376344086
sg23
F2398323.0
sg24
F0.03581526861451461
sg25
F2887651.282828283
sg26
F0.6124139535582868
ssS'MCCONNELL MICHAEL S'
p143
(dp144
g3
F3329.0
sg4
F690646.1081081082
sg5
F81364.0
sg6
F0.0
sg7
F-521774.0425531915
sg8
F92.0
sg9
F0.02763592670471613
sg10
I00
sg11
F2189.0
sg12
F2742.0
sg13
F540.0
sg14
F554422.0
sg15
F0.657554821267648
sg16
F1100000.0
sg17
F3101279.0
sg18
F0.17371478715729402
sg19
F194.0
sg20
F1478269.0
sg21
F0.5233356947246603
sg22
F365038.0
sg23
F2101364.0
sg24
F0.07075127644055434
sg25
F1623010.0
sg26
F0.5234695178940917
ssS'DELAINEY DAVID W'
p145
(dp146
g3
F3093.0
sg4
F690646.1081081082
sg5
F86174.0
sg6
F1.0
sg7
F-521774.0425531915
sg8
F66.0
sg9
F0.02133850630455868
sg10
I00
sg11
F2097.0
sg12
F3069.0
sg13
F1661.0
sg14
F1294981.0
sg15
F0.6779825412221144
sg16
F3000000.0
sg17
F3614261.0
sg18
F0.07690914386942319
sg19
F609.0
sg20
F1323148.0
sg21
F0.6339091172441614
sg22
F365163.0
sg23
F4747979.0
sg24
F0.198435972629521
sg25
F2291113.0
sg26
F0.6318477819720769
ssS'SULLIVAN-SHAKLOVITZ COLLEEN'
p147
(dp148
g3
F2078.0238095238096
sg4
F181993.0
sg5
F53839.37634408602
sg6
F0.0
sg7
F-521774.0425531915
sg8
F63.55952380952381
sg9
F0.03798717882302457
sg10
I00
sg11
F1163.5
sg12
F622.6904761904761
sg13
F162.0
sg14
F554422.0
sg15
F0.60219169025735
sg16
F100000.0
sg17
F1362375.0
sg18
F0.162883897229816
sg19
F42.13095238095238
sg20
F1154065.8785046728
sg21
F1.0
sg22
F162779.0
sg23
F999356.0
sg24
F0.1846258858185806
sg25
F1362375.0
sg26
F0.10006444150032621
ssS'WROBEL BRUCE'
p149
(dp150
g3
F2078.0238095238096
sg4
F690646.1081081082
sg5
F53839.37634408602
sg6
F0.0
sg7
F-521774.0425531915
sg8
F63.55952380952381
sg9
F0.03798717882302457
sg10
I00
sg11
F1163.5
sg12
F622.6904761904761
sg13
F391555.2
sg14
F732889.328125
sg15
F0.60219169025735
sg16
F1191795.2375
sg17
F139130.0
sg18
F0.23289074022706455
sg19
F42.13095238095238
sg20
F1154065.8785046728
sg21
F1.0
sg22
F275734.376344086
sg23
F2398323.0
sg24
F0.1846258858185806
sg25
F139130.0
sg26
F0.6124139535582868
ssS'LINDHOLM TOD A'
p151
(dp152
g3
F2078.0238095238096
sg4
F204075.0
sg5
F57727.0
sg6
F0.0
sg7
F-521774.0425531915
sg8
F63.55952380952381
sg9
F0.03798717882302457
sg10
I00
sg11
F1163.5
sg12
F622.6904761904761
sg13
F2630.0
sg14
F175000.0
sg15
F0.60219169025735
sg16
F200000.0
sg17
F3064208.0
sg18
F0.2699622897421934
sg19
F42.13095238095238
sg20
F514847.0
sg21
F0.8319804008083003
sg22
F236457.0
sg23
F875889.0
sg24
F0.1846258858185806
sg25
F2549361.0
sg26
F0.22833943570475254
ssS'MEYER JEROME J'
p153
(dp154
g3
F2078.0238095238096
sg4
F690646.1081081082
sg5
F2151.0
sg6
F0.0
sg7
F-38346.0
sg8
F63.55952380952381
sg9
F0.03798717882302457
sg10
I00
sg11
F1163.5
sg12
F622.6904761904761
sg13
F391555.2
sg14
F732889.328125
sg15
F0.60219169025735
sg16
F1191795.2375
sg17
F3261185.0241935486
sg18
F0.23289074022706455
sg19
F42.13095238095238
sg20
F1154065.8785046728
sg21
F0.7184999490720799
sg22
F275734.376344086
sg23
F2151.0
sg24
F0.1846258858185806
sg25
F2887651.282828283
sg26
F0.6124139535582868
ssS'LAY KENNETH L'
p155
(dp156
g3
F4273.0
sg4
F202911.0
sg5
F99832.0
sg6
F1.0
sg7
F-300000.0
sg8
F123.0
sg9
F0.028785396676807865
sg10
I00
sg11
F2411.0
sg12
F36.0
sg13
F10359729.0
sg14
F3600000.0
sg15
F0.5642405803884858
sg16
F7000000.0
sg17
F49110078.0
sg18
F0.010354607410233042
sg19
F16.0
sg20
F14761694.0
sg21
F0.6994161972212709
sg22
F1072321.0
sg23
F103559793.0
sg24
F0.4444444444444444
sg25
F34348384.0
sg26
F0.06759380061719514
ssS'BUTTS ROBERT H'
p157
(dp158
g3
F2078.0238095238096
sg4
F690646.1081081082
sg5
F9410.0
sg6
F0.0
sg7
F-75000.0
sg8
F63.55952380952381
sg9
F0.03798717882302457
sg10
I00
sg11
F1163.5
sg12
F622.6904761904761
sg13
F150656.0
sg14
F175000.0
sg15
F0.60219169025735
sg16
F750000.0
sg17
F417619.0
sg18
F0.20566192349372672
sg19
F42.13095238095238
sg20
F417619.0
sg21
F0.7184999490720799
sg22
F261516.0
sg23
F1271582.0
sg24
F0.1846258858185806
sg25
F2887651.282828283
sg26
F0.5898164648445794
ssS'OLSON CINDY K'
p159
(dp160
g3
F1184.0
sg4
F77716.0
sg5
F63791.0
sg6
F0.0
sg7
F-521774.0425531915
sg8
F20.0
sg9
F0.016891891891891893
sg10
I00
sg11
F856.0
sg12
F52.0
sg13
F972.0
sg14
F100000.0
sg15
F0.722972972972973
sg16
F750000.0
sg17
F2606763.0
sg18
F0.2490077991339004
sg19
F15.0
sg20
F969729.0
sg21
F0.6279949500587511
sg22
F329078.0
sg23
F1321557.0
sg24
F0.28846153846153844
sg25
F1637034.0
sg26
F0.5675124114964394
ssS'MCDONALD REBECCA'
p161
(dp162
g3
F894.0
sg4
F690646.1081081082
sg5
F53839.37634408602
sg6
F0.0
sg7
F-521774.0425531915
sg8
F54.0
sg9
F0.06040268456375839
sg10
I00
sg11
F720.0
sg12
F13.0
sg13
F391555.2
sg14
F732889.328125
sg15
F0.8053691275167785
sg16
F1191795.2375
sg17
F1691366.0
sg18
F0.23289074022706455
sg19
F1.0
sg20
F934065.0
sg21
F0.4477451953036776
sg22
F275734.376344086
sg23
F2398323.0
sg24
F0.07692307692307693
sg25
F757301.0
sg26
F0.6124139535582868
ssS'CUMBERLAND MICHAEL S'
p163
(dp164
g3
F2078.0238095238096
sg4
F690646.1081081082
sg5
F22344.0
sg6
F0.0
sg7
F-521774.0425531915
sg8
F63.55952380952381
sg9
F0.03798717882302457
sg10
I00
sg11
F1163.5
sg12
F622.6904761904761
sg13
F713.0
sg14
F275000.0
sg15
F0.60219169025735
sg16
F325000.0
sg17
F207940.0
sg18
F0.2288478580516761
sg19
F42.13095238095238
sg20
F207940.0
sg21
F0.7184999490720799
sg22
F184899.0
sg23
F807956.0
sg24
F0.1846258858185806
sg25
F2887651.282828283
sg26
F0.4022496274549604
ssS'GAHN ROBERT S'
p165
(dp166
g3
F2078.0238095238096
sg4
F73122.0
sg5
F50080.0
sg6
F0.0
sg7
F-1042.0
sg8
F63.55952380952381
sg9
F0.03798717882302457
sg10
I00
sg11
F1163.5
sg12
F622.6904761904761
sg13
F76547.0
sg14
F732889.328125
sg15
F0.60219169025735
sg16
F509870.0
sg17
F318607.0
sg18
F0.21320363985631563
sg19
F42.13095238095238
sg20
F235370.0
sg21
F0.2612528914932817
sg22
F192008.0
sg23
F900585.0
sg24
F0.1846258858185806
sg25
F83237.0
sg26
F0.5661542219779365
ssS'MCCLELLAN GEORGE'
p167
(dp168
g3
F1744.0
sg4
F690646.1081081082
sg5
F228763.0
sg6
F0.0
sg7
F-125000.0
sg8
F52.0
sg9
F0.02981651376146789
sg10
I00
sg11
F1469.0
sg12
F49.0
sg13
F51587.0
sg14
F732889.328125
sg15
F0.8423165137614679
sg16
F900000.0
sg17
F947861.0
sg18
F0.1997424859508494
sg19
F0.0
sg20
F441096.0
sg21
F0.534640627686971
sg22
F263413.0
sg23
F1318763.0
sg24
F0.0
sg25
F506765.0
sg26
F0.6824577274309334
ssS'HERMANN ROBERT J'
p169
(dp170
g3
F2078.0238095238096
sg4
F690646.1081081082
sg5
F48357.0
sg6
F0.0
sg7
F-280000.0
sg8
F63.55952380952381
sg9
F0.03798717882302457
sg10
I00
sg11
F1163.5
sg12
F622.6904761904761
sg13
F416441.0
sg14
F150000.0
sg15
F0.60219169025735
sg16
F700000.0
sg17
F668132.0
sg18
F0.20244384995001777
sg19
F42.13095238095238
sg20
F480632.0
sg21
F0.2806331682960852
sg22
F262663.0
sg23
F1297461.0
sg24
F0.1846258858185806
sg25
F187500.0
sg26
F0.5395152532523135
ssS'SCRIMSHAW MATTHEW'
p171
(dp172
g3
F2078.0238095238096
sg4
F690646.1081081082
sg5
F53839.37634408602
sg6
F0.0
sg7
F-521774.0425531915
sg8
F63.55952380952381
sg9
F0.03798717882302457
sg10
I00
sg11
F1163.5
sg12
F622.6904761904761
sg13
F391555.2
sg14
F732889.328125
sg15
F0.60219169025735
sg16
F1191795.2375
sg17
F759557.0
sg18
F0.23289074022706455
sg19
F42.13095238095238
sg20
F1154065.8785046728
sg21
F1.0
sg22
F275734.376344086
sg23
F2398323.0
sg24
F0.1846258858185806
sg25
F759557.0
sg26
F0.6124139535582868
ssS'GATHMANN WILLIAM D'
p173
(dp174
g3
F2078.0238095238096
sg4
F690646.1081081082
sg5
F53839.37634408602
sg6
F0.0
sg7
F-521774.0425531915
sg8
F63.55952380952381
sg9
F0.03798717882302457
sg10
I00
sg11
F1163.5
sg12
F622.6904761904761
sg13
F391555.2
sg14
F732889.328125
sg15
F0.60219169025735
sg16
F1191795.2375
sg17
F1945360.0
sg18
F0.23289074022706455
sg19
F42.13095238095238
sg20
F264013.0
sg21
F0.9015123164864087
sg22
F275734.376344086
sg23
F2398323.0
sg24
F0.1846258858185806
sg25
F1753766.0
sg26
F0.6124139535582868
ssS'HAEDICKE MARK E'
p175
(dp176
g3
F4009.0
sg4
F2157527.0
sg5
F76169.0
sg6
F0.0
sg7
F-934484.0
sg8
F180.0
sg9
F0.04489897730107259
sg10
I00
sg11
F1847.0
sg12
F1941.0
sg13
F52382.0
sg14
F983346.0
sg15
F0.4607133948615615
sg16
F1150000.0
sg17
F803094.0
sg18
F0.09694705841959127
sg19
F61.0
sg20
F524169.0
sg21
F0.7580059121348186
sg22
F374125.0
sg23
F3859065.0
sg24
F0.03142709943328181
sg25
F608750.0
sg26
F0.29799964499172726
ssS'BOWEN JR RAYMOND M'
p177
(dp178
g3
F1858.0
sg4
F690646.1081081082
sg5
F65907.0
sg6
F1.0
sg7
F-833.0
sg8
F140.0
sg9
F0.07534983853606028
sg10
I00
sg11
F1593.0
sg12
F27.0
sg13
F1621.0
sg14
F974293.0
sg15
F0.8573735199138859
sg16
F1350000.0
sg17
F252055.0
sg18
F0.10436100837994162
sg19
F15.0
sg20
F252055.0
sg21
F0.7184999490720799
sg22
F278601.0
sg23
F2669589.0
sg24
F0.5555555555555556
sg25
F2887651.282828283
sg26
F0.5056958205926081
ssS'GILLIS JOHN'
p179
(dp180
g3
F2078.0238095238096
sg4
F690646.1081081082
sg5
F53839.37634408602
sg6
F0.0
sg7
F-521774.0425531915
sg8
F63.55952380952381
sg9
F0.03798717882302457
sg10
I00
sg11
F1163.5
sg12
F622.6904761904761
sg13
F391555.2
sg14
F732889.328125
sg15
F0.60219169025735
sg16
F1191795.2375
sg17
F85641.0
sg18
F0.23289074022706455
sg19
F42.13095238095238
sg20
F75838.0
sg21
F0.11446620193598861
sg22
F275734.376344086
sg23
F2398323.0
sg24
F0.1846258858185806
sg25
F9803.0
sg26
F0.6124139535582868
ssS'FITZGERALD JAY L'
p181
(dp182
g3
F936.0
sg4
F690646.1081081082
sg5
F23870.0
sg6
F0.0
sg7
F-521774.0425531915
sg8
F1.0
sg9
F0.0010683760683760685
sg10
I00
sg11
F723.0
sg12
F16.0
sg13
F285414.0
sg14
F556416.0
sg15
F0.7724358974358975
sg16
F350000.0
sg17
F1621236.0
sg18
F0.14076122180545456
sg19
F8.0
sg20
F956775.0
sg21
F0.40984841195236227
sg22
F199157.0
sg23
F1414857.0
sg24
F0.5
sg25
F664461.0
sg26
F0.24737482303865338
ssS'MORAN MICHAEL P'
p183
(dp184
g3
F672.0
sg4
F690646.1081081082
sg5
F53839.37634408602
sg6
F0.0
sg7
F-521774.0425531915
sg8
F0.0
sg9
F0.0
sg10
I00
sg11
F127.0
sg12
F19.0
sg13
F391555.2
sg14
F732889.328125
sg15
F0.18898809523809523
sg16
F1191795.2375
sg17
F221141.0
sg18
F0.23289074022706455
sg19
F0.0
sg20
F161602.0
sg21
F0.2692354651557151
sg22
F275734.376344086
sg23
F2398323.0
sg24
F0.0
sg25
F59539.0
sg26
F0.6124139535582868
ssS'REDMOND BRIAN L'
p185
(dp186
g3
F1671.0
sg4
F690646.1081081082
sg5
F14689.0
sg6
F0.0
sg7
F-521774.0425531915
sg8
F204.0
sg9
F0.12208258527827648
sg10
I00
sg11
F1063.0
sg12
F221.0
sg13
F391555.2
sg14
F732889.328125
sg15
F0.6361460203470976
sg16
F1191795.2375
sg17
F7890324.0
sg18
F0.8682943449685732
sg19
F49.0
sg20
F381285.0
sg21
F0.951676889314051
sg22
F96840.0
sg23
F111529.0
sg24
F0.22171945701357465
sg25
F7509039.0
sg26
F0.6124139535582868
ssS'BAZELIDES PHILIP J'
p187
(dp188
g3
F2078.0238095238096
sg4
F684694.0
sg5
F53839.37634408602
sg6
F0.0
sg7
F-521774.0425531915
sg8
F63.55952380952381
sg9
F0.03798717882302457
sg10
I00
sg11
F1163.5
sg12
F622.6904761904761
sg13
F874.0
sg14
F93750.0
sg15
F0.60219169025735
sg16
F1191795.2375
sg17
F1599641.0
sg18
F0.0939595598835533
sg19
F42.13095238095238
sg20
F1154065.8785046728
sg21
F1.0
sg22
F80818.0
sg23
F860136.0
sg24
F0.1846258858185806
sg25
F1599641.0
sg26
F0.6124139535582868
ssS'BELDEN TIMOTHY N'
p189
(dp190
g3
F7991.0
sg4
F2144013.0
sg5
F17355.0
sg6
F1.0
sg7
F-2334434.0
sg8
F228.0
sg9
F0.028532098610937303
sg10
I00
sg11
F5521.0
sg12
F484.0
sg13
F210698.0
sg14
F732889.328125
sg15
F0.6909022650481792
sg16
F5249999.0
sg17
F1110705.0
sg18
F0.03889738132153562
sg19
F108.0
sg20
F157569.0
sg21
F0.8581360487258093
sg22
F213999.0
sg23
F5501630.0
sg24
F0.2231404958677686
sg25
F953136.0
sg26
F0.9542624640333864
ssS'DURAN WILLIAM D'
p191
(dp192
g3
F904.0
sg4
F690646.1081081082
sg5
F25785.0
sg6
F0.0
sg7
F-521774.0425531915
sg8
F106.0
sg9
F0.1172566371681416
sg10
I00
sg11
F599.0
sg12
F12.0
sg13
F1568.0
sg14
F1105218.0
sg15
F0.6626106194690266
sg16
F750000.0
sg17
F1640910.0
sg18
F0.10065242637929396
sg19
F3.0
sg20
F189041.0
sg21
F0.8847950222742259
sg22
F210692.0
sg23
F2093263.0
sg24
F0.25
sg25
F1451869.0
sg26
F0.3582922929416896
ssS'THORN TERENCE H'
p193
(dp194
g3
F266.0
sg4
F16586.0
sg5
F46145.0
sg6
F0.0
sg7
F-521774.0425531915
sg8
F0.0
sg9
F0.0
sg10
I00
sg11
F73.0
sg12
F41.0
sg13
F426629.0
sg14
F200000.0
sg15
F0.2744360902255639
sg16
F1191795.2375
sg17
F4817796.0
sg18
F0.24366917438419755
sg19
F0.0
sg20
F365320.0
sg21
F0.9241727960254025
sg22
F222093.0
sg23
F911453.0
sg24
F0.0
sg25
F4452476.0
sg26
F0.6124139535582868
ssS'FASTOW ANDREW S'
p195
(dp196
g3
F2078.0238095238096
sg4
F690646.1081081082
sg5
F55921.0
sg6
F1.0
sg7
F-1386055.0
sg8
F63.55952380952381
sg9
F0.03798717882302457
sg10
I00
sg11
F1163.5
sg12
F622.6904761904761
sg13
F277464.0
sg14
F1736055.0
sg15
F0.60219169025735
sg16
F1300000.0
sg17
F1794412.0
sg18
F0.1817998806146489
sg19
F42.13095238095238
sg20
F1794412.0
sg21
F0.7184999490720799
sg22
F440698.0
sg23
F2424083.0
sg24
F0.1846258858185806
sg25
F2887651.282828283
sg26
F0.5362852674599013
ssS'FOY JOE'
p197
(dp198
g3
F57.0
sg4
F181755.0
sg5
F53839.37634408602
sg6
F0.0
sg7
F-521774.0425531915
sg8
F0.0
sg9
F0.0
sg10
I00
sg11
F2.0
sg12
F13.0
sg13
F391555.2
sg14
F732889.328125
sg15
F0.03508771929824561
sg16
F1191795.2375
sg17
F343434.0
sg18
F0.23289074022706455
sg19
F0.0
sg20
F1154065.8785046728
sg21
F1.0
sg22
F275734.376344086
sg23
F181755.0
sg24
F0.0
sg25
F343434.0
sg26
F0.6124139535582868
ssS'CALGER CHRISTOPHER F'
p199
(dp200
g3
F2598.0
sg4
F690646.1081081082
sg5
F35818.0
sg6
F1.0
sg7
F-262500.0
sg8
F199.0
sg9
F0.07659738260200154
sg10
I00
sg11
F2188.0
sg12
F144.0
sg13
F486.0
sg14
F375304.0
sg15
F0.8421862971516552
sg16
F1250000.0
sg17
F126027.0
sg18
F0.14651951415759315
sg19
F25.0
sg20
F126027.0
sg21
F0.7184999490720799
sg22
F240189.0
sg23
F1639297.0
sg24
F0.1736111111111111
sg25
F2887651.282828283
sg26
F0.7625219835087845
ssS'RICE KENNETH D'
p201
(dp202
g3
F905.0
sg4
F690646.1081081082
sg5
F46950.0
sg6
F1.0
sg7
F-3504386.0
sg8
F42.0
sg9
F0.04640883977900553
sg10
I00
sg11
F864.0
sg12
F18.0
sg13
F174839.0
sg14
F1617011.0
sg15
F0.9546961325966851
sg16
F1750000.0
sg17
F22542539.0
sg18
F0.8328601128601129
sg19
F4.0
sg20
F2748364.0
sg21
F0.8780809916753388
sg22
F420636.0
sg23
F505050.0
sg24
F0.2222222222222222
sg25
F19794175.0
sg26
F3.465003465003465
ssS'KAMINSKI WINCENTY J'
p203
(dp204
g3
F4607.0
sg4
F690646.1081081082
sg5
F83585.0
sg6
F0.0
sg7
F-521774.0425531915
sg8
F41.0
sg9
F0.008899500759713479
sg10
I00
sg11
F583.0
sg12
F14368.0
sg13
F4669.0
sg14
F323466.0
sg15
F0.1265465595832429
sg16
F400000.0
sg17
F976037.0
sg18
F0.2531244795601116
sg19
F171.0
sg20
F126027.0
sg21
F0.8708788703706929
sg22
F275101.0
sg23
F1086821.0
sg24
F0.011901447661469933
sg25
F850010.0
sg26
F0.368045887961311
ssS'LOCKHART EUGENE E'
p205
(dp206
g3
F2078.0238095238096
sg4
F690646.1081081082
sg5
F53839.37634408602
sg6
F0.0
sg7
F-521774.0425531915
sg8
F63.55952380952381
sg9
F0.03798717882302457
sg10
I00
sg11
F1163.5
sg12
F622.6904761904761
sg13
F391555.2
sg14
F732889.328125
sg15
F0.60219169025735
sg16
F1191795.2375
sg17
F3261185.0241935486
sg18
F0.23289074022706455
sg19
F42.13095238095238
sg20
F1154065.8785046728
sg21
F0.7184999490720799
sg22
F275734.376344086
sg23
F2398323.0
sg24
F0.1846258858185806
sg25
F2887651.282828283
sg26
F0.6124139535582868
ssS'COX DAVID'
p207
(dp208
g3
F102.0
sg4
F690646.1081081082
sg5
F27861.0
sg6
F0.0
sg7
F-41250.0
sg8
F0.0
sg9
F0.0
sg10
I00
sg11
F71.0
sg12
F33.0
sg13
F494.0
sg14
F732889.328125
sg15
F0.696078431372549
sg16
F800000.0
sg17
F495633.0
sg18
F0.28535500044035145
sg19
F4.0
sg20
F378082.0
sg21
F0.23717347311417925
sg22
F314288.0
sg23
F1101393.0
sg24
F0.12121212121212122
sg25
F117551.0
sg26
F0.7263529003725282
ssS'OVERDYKE JR JERE C'
p209
(dp210
g3
F2078.0238095238096
sg4
F690646.1081081082
sg5
F18834.0
sg6
F0.0
sg7
F-521774.0425531915
sg8
F63.55952380952381
sg9
F0.03798717882302457
sg10
I00
sg11
F1163.5
sg12
F622.6904761904761
sg13
F176.0
sg14
F135836.0
sg15
F0.60219169025735
sg16
F1191795.2375
sg17
F7307594.0
sg18
F0.38008783483527964
sg19
F42.13095238095238
sg20
F2041016.0
sg21
F0.7206993163550137
sg22
F94941.0
sg23
F249787.0
sg24
F0.1846258858185806
sg25
F5266578.0
sg26
F0.6124139535582868
ssS'PEREIRA PAULO V. FERRAZ'
p211
(dp212
g3
F2078.0238095238096
sg4
F690646.1081081082
sg5
F27942.0
sg6
F0.0
sg7
F-101250.0
sg8
F63.55952380952381
sg9
F0.03798717882302457
sg10
I00
sg11
F1163.5
sg12
F622.6904761904761
sg13
F391555.2
sg14
F732889.328125
sg15
F0.60219169025735
sg16
F1191795.2375
sg17
F3261185.0241935486
sg18
F0.23289074022706455
sg19
F42.13095238095238
sg20
F1154065.8785046728
sg21
F0.7184999490720799
sg22
F275734.376344086
sg23
F27942.0
sg24
F0.1846258858185806
sg25
F2887651.282828283
sg26
F0.6124139535582868
ssS'STABLER FRANK'
p213
(dp214
g3
F2078.0238095238096
sg4
F690646.1081081082
sg5
F16514.0
sg6
F0.0
sg7
F-521774.0425531915
sg8
F63.55952380952381
sg9
F0.03798717882302457
sg10
I00
sg11
F1163.5
sg12
F622.6904761904761
sg13
F356071.0
sg14
F732889.328125
sg15
F0.60219169025735
sg16
F500000.0
sg17
F511734.0
sg18
F0.21536264698715119
sg19
F42.13095238095238
sg20
F511734.0
sg21
F0.7184999490720799
sg22
F239502.0
sg23
F1112087.0
sg24
F0.1846258858185806
sg25
F2887651.282828283
sg26
F0.44960511183027946
ssS'SKILLING JEFFREY K'
p215
(dp216
g3
F3627.0
sg4
F690646.1081081082
sg5
F29336.0
sg6
F1.0
sg7
F-521774.0425531915
sg8
F88.0
sg9
F0.0242624758753791
sg10
I00
sg11
F2042.0
sg12
F108.0
sg13
F22122.0
sg14
F1920000.0
sg15
F0.5629997242900469
sg16
F5600000.0
sg17
F26093672.0
sg18
F0.12798506826665756
sg19
F30.0
sg20
F6843672.0
sg21
F0.7377267561269261
sg22
F1111258.0
sg23
F8682716.0
sg24
F0.2777777777777778
sg25
F19250000.0
sg26
F0.6449594804206426
ssS'BLAKE JR. NORMAN P'
p217
(dp218
g3
F2078.0238095238096
sg4
F690646.1081081082
sg5
F1279.0
sg6
F0.0
sg7
F-113784.0
sg8
F63.55952380952381
sg9
F0.03798717882302457
sg10
I00
sg11
F1163.5
sg12
F622.6904761904761
sg13
F391555.2
sg14
F732889.328125
sg15
F0.60219169025735
sg16
F1191795.2375
sg17
F3261185.0241935486
sg18
F0.23289074022706455
sg19
F42.13095238095238
sg20
F1154065.8785046728
sg21
F0.7184999490720799
sg22
F275734.376344086
sg23
F1279.0
sg24
F0.1846258858185806
sg25
F2887651.282828283
sg26
F0.6124139535582868
ssS'SHERRICK JEFFREY B'
p219
(dp220
g3
F613.0
sg4
F690646.1081081082
sg5
F53839.37634408602
sg6
F0.0
sg7
F-521774.0425531915
sg8
F39.0
sg9
F0.0636215334420881
sg10
I00
sg11
F583.0
sg12
F25.0
sg13
F391555.2
sg14
F732889.328125
sg15
F0.9510603588907015
sg16
F1191795.2375
sg17
F1832468.0
sg18
F0.23289074022706455
sg19
F18.0
sg20
F405999.0
sg21
F0.7784414243522942
sg22
F275734.376344086
sg23
F2398323.0
sg24
F0.72
sg25
F1426469.0
sg26
F0.6124139535582868
ssS'PRENTICE JAMES'
p221
(dp222
g3
F2078.0238095238096
sg4
F564348.0
sg5
F53839.37634408602
sg6
F0.0
sg7
F-521774.0425531915
sg8
F63.55952380952381
sg9
F0.03798717882302457
sg10
I00
sg11
F1163.5
sg12
F622.6904761904761
sg13
F391555.2
sg14
F732889.328125
sg15
F0.60219169025735
sg16
F1191795.2375
sg17
F1095040.0
sg18
F0.23289074022706455
sg19
F42.13095238095238
sg20
F208809.0
sg21
F0.8093138150204559
sg22
F275734.376344086
sg23
F564348.0
sg24
F0.1846258858185806
sg25
F886231.0
sg26
F0.6124139535582868
ssS'GRAY RODNEY'
p223
(dp224
g3
F2078.0238095238096
sg4
F93585.0
sg5
F53839.37634408602
sg6
F0.0
sg7
F-521774.0425531915
sg8
F63.55952380952381
sg9
F0.03798717882302457
sg10
I00
sg11
F1163.5
sg12
F622.6904761904761
sg13
F680833.0
sg14
F365625.0
sg15
F0.60219169025735
sg16
F1191795.2375
sg17
F3261185.0241935486
sg18
F0.005768938951282772
sg19
F42.13095238095238
sg20
F1154065.8785046728
sg21
F0.7184999490720799
sg22
F6615.0
sg23
F1146658.0
sg24
F0.1846258858185806
sg25
F2887651.282828283
sg26
F0.6124139535582868
ssS'PICKERING MARK R'
p225
(dp226
g3
F898.0
sg4
F690646.1081081082
sg5
F31653.0
sg6
F0.0
sg7
F-521774.0425531915
sg8
F7.0
sg9
F0.0077951002227171495
sg10
I00
sg11
F728.0
sg12
F67.0
sg13
F391555.2
sg14
F732889.328125
sg15
F0.8106904231625836
sg16
F300000.0
sg17
F28798.0
sg18
F0.47237450331364617
sg19
F0.0
sg20
F1154065.8785046728
sg21
F1.0
sg22
F655037.0
sg23
F1386690.0
sg24
F0.0
sg25
F28798.0
sg26
F0.21634251346732147
ssS'THE TRAVEL AGENCY IN THE PARK'
p227
(dp228
g3
F2078.0238095238096
sg4
F690646.1081081082
sg5
F53839.37634408602
sg6
F0.0
sg7
F-521774.0425531915
sg8
F63.55952380952381
sg9
F0.03798717882302457
sg10
I00
sg11
F1163.5
sg12
F622.6904761904761
sg13
F362096.0
sg14
F732889.328125
sg15
F0.60219169025735
sg16
F1191795.2375
sg17
F3261185.0241935486
sg18
F0.23289074022706455
sg19
F42.13095238095238
sg20
F1154065.8785046728
sg21
F0.7184999490720799
sg22
F275734.376344086
sg23
F362096.0
sg24
F0.1846258858185806
sg25
F2887651.282828283
sg26
F0.6124139535582868
ssS'NOLES JAMES L'
p229
(dp230
g3
F2078.0238095238096
sg4
F774401.0
sg5
F53839.37634408602
sg6
F0.0
sg7
F-521774.0425531915
sg8
F63.55952380952381
sg9
F0.03798717882302457
sg10
I00
sg11
F1163.5
sg12
F622.6904761904761
sg13
F391555.2
sg14
F732889.328125
sg15
F0.60219169025735
sg16
F1191795.2375
sg17
F368705.0
sg18
F0.23289074022706455
sg19
F42.13095238095238
sg20
F463261.0
sg21
F0.7184999490720799
sg22
F275734.376344086
sg23
F774401.0
sg24
F0.1846258858185806
sg25
F2887651.282828283
sg26
F0.6124139535582868
ssS'KEAN STEVEN J'
p231
(dp232
g3
F12754.0
sg4
F690646.1081081082
sg5
F41953.0
sg6
F0.0
sg7
F-521774.0425531915
sg8
F140.0
sg9
F0.010976948408342482
sg10
I00
sg11
F3639.0
sg12
F6759.0
sg13
F1231.0
sg14
F300000.0
sg15
F0.2853222518425592
sg16
F1000000.0
sg17
F6153642.0
sg18
F0.23137791684453757
sg19
F387.0
sg20
F4131594.0
sg21
F0.32859370109603386
sg22
F404338.0
sg23
F1747522.0
sg24
F0.05725699067909454
sg25
F2022048.0
sg26
F0.5722388616566773
ssS'FOWLER PEGGY'
p233
(dp234
g3
F517.0
sg4
F690646.1081081082
sg5
F53839.37634408602
sg6
F0.0
sg7
F-521774.0425531915
sg8
F0.0
sg9
F0.0
sg10
I00
sg11
F10.0
sg12
F36.0
sg13
F391555.2
sg14
F732889.328125
sg15
F0.019342359767891684
sg16
F1191795.2375
sg17
F1884748.0
sg18
F0.23289074022706455
sg19
F0.0
sg20
F560170.0
sg21
F0.7027878528057863
sg22
F275734.376344086
sg23
F2398323.0
sg24
F0.0
sg25
F1324578.0
sg26
F0.6124139535582868
ssS'WASAFF GEORGE'
p235
(dp236
g3
F400.0
sg4
F831299.0
sg5
F53839.37634408602
sg6
F0.0
sg7
F-583325.0
sg8
F22.0
sg9
F0.055
sg10
I00
sg11
F337.0
sg12
F30.0
sg13
F1425.0
sg14
F200000.0
sg15
F0.8425
sg16
F325000.0
sg17
F2056427.0
sg18
F0.2513507895919837
sg19
F7.0
sg20
F388167.0
sg21
F0.8112420231790382
sg22
F259996.0
sg23
F1034395.0
sg24
F0.23333333333333334
sg25
F1668260.0
sg26
F0.3141933207333755
ssS'WHITE JR THOMAS E'
p237
(dp238
g3
F2078.0238095238096
sg4
F690646.1081081082
sg5
F81353.0
sg6
F0.0
sg7
F-521774.0425531915
sg8
F63.55952380952381
sg9
F0.03798717882302457
sg10
I00
sg11
F1163.5
sg12
F622.6904761904761
sg13
F1085463.0
sg14
F732889.328125
sg15
F0.60219169025735
sg16
F450000.0
sg17
F15144123.0
sg18
F0.1641592899766796
sg19
F42.13095238095238
sg20
F13847074.0
sg21
F0.08564701963923563
sg22
F317543.0
sg23
F1934359.0
sg24
F0.1846258858185806
sg25
F1297049.0
sg26
F0.23263520370313887
ssS'CHRISTODOULOU DIOMEDES'
p239
(dp240
g3
F2078.0238095238096
sg4
F690646.1081081082
sg5
F53839.37634408602
sg6
F0.0
sg7
F-521774.0425531915
sg8
F63.55952380952381
sg9
F0.03798717882302457
sg10
I00
sg11
F1163.5
sg12
F622.6904761904761
sg13
F391555.2
sg14
F732889.328125
sg15
F0.60219169025735
sg16
F1191795.2375
sg17
F6077885.0
sg18
F0.23289074022706455
sg19
F42.13095238095238
sg20
F950730.0
sg21
F0.8435755201027989
sg22
F275734.376344086
sg23
F2398323.0
sg24
F0.1846258858185806
sg25
F5127155.0
sg26
F0.6124139535582868
ssS'ALLEN PHILLIP K'
p241
(dp242
g3
F2902.0
sg4
F2869717.0
sg5
F13868.0
sg6
F0.0
sg7
F-3081055.0
sg8
F47.0
sg9
F0.016195727084769126
sg10
I00
sg11
F1407.0
sg12
F2195.0
sg13
F152.0
sg14
F304805.0
sg15
F0.4848380427291523
sg16
F4175000.0
sg17
F1729541.0
sg18
F0.04503458847276874
sg19
F65.0
sg20
F126027.0
sg21
F1.0
sg22
F201955.0
sg23
F4484442.0
sg24
F0.029612756264236904
sg25
F1729541.0
sg26
F0.9309965431596617
ssS'SHARP VICTORIA T'
p243
(dp244
g3
F3136.0
sg4
F187469.0
sg5
F116337.0
sg6
F0.0
sg7
F-521774.0425531915
sg8
F24.0
sg9
F0.007653061224489796
sg10
I00
sg11
F2477.0
sg12
F136.0
sg13
F2401.0
sg14
F422158.0
sg15
F0.7898596938775511
sg16
F600000.0
sg17
F494136.0
sg18
F0.15740200988131386
sg19
F6.0
sg20
F213063.0
sg21
F0.5688170867939191
sg22
F248146.0
sg23
F1576511.0
sg24
F0.04411764705882353
sg25
F281073.0
sg26
F0.38058725882661143
ssS'JAEDICKE ROBERT'
p245
(dp246
g3
F2078.0238095238096
sg4
F690646.1081081082
sg5
F53839.37634408602
sg6
F0.0
sg7
F-25000.0
sg8
F63.55952380952381
sg9
F0.03798717882302457
sg10
I00
sg11
F1163.5
sg12
F622.6904761904761
sg13
F391555.2
sg14
F732889.328125
sg15
F0.60219169025735
sg16
F1191795.2375
sg17
F431750.0
sg18
F0.23289074022706455
sg19
F42.13095238095238
sg20
F44093.0
sg21
F1.0
sg22
F275734.376344086
sg23
F83750.0
sg24
F0.1846258858185806
sg25
F431750.0
sg26
F0.6124139535582868
ssS'WINOKUR JR. HERBERT S'
p247
(dp248
g3
F2078.0238095238096
sg4
F690646.1081081082
sg5
F1413.0
sg6
F0.0
sg7
F-25000.0
sg8
F63.55952380952381
sg9
F0.03798717882302457
sg10
I00
sg11
F1163.5
sg12
F622.6904761904761
sg13
F391555.2
sg14
F732889.328125
sg15
F0.60219169025735
sg16
F1191795.2375
sg17
F3261185.0241935486
sg18
F0.23289074022706455
sg19
F42.13095238095238
sg20
F1154065.8785046728
sg21
F0.7184999490720799
sg22
F275734.376344086
sg23
F84992.0
sg24
F0.1846258858185806
sg25
F2887651.282828283
sg26
F0.6124139535582868
ssS'BROWN MICHAEL'
p249
(dp250
g3
F1486.0
sg4
F690646.1081081082
sg5
F49288.0
sg6
F0.0
sg7
F-521774.0425531915
sg8
F13.0
sg9
F0.008748317631224764
sg10
I00
sg11
F761.0
sg12
F41.0
sg13
F391555.2
sg14
F732889.328125
sg15
F0.5121130551816958
sg16
F1191795.2375
sg17
F3261185.0241935486
sg18
F0.23289074022706455
sg19
F1.0
sg20
F1154065.8785046728
sg21
F0.7184999490720799
sg22
F275734.376344086
sg23
F49288.0
sg24
F0.024390243902439025
sg25
F2887651.282828283
sg26
F0.6124139535582868
ssS'BADUM JAMES P'
p251
(dp252
g3
F2078.0238095238096
sg4
F178980.0
sg5
F3486.0
sg6
F0.0
sg7
F-521774.0425531915
sg8
F63.55952380952381
sg9
F0.03798717882302457
sg10
I00
sg11
F1163.5
sg12
F622.6904761904761
sg13
F391555.2
sg14
F732889.328125
sg15
F0.60219169025735
sg16
F1191795.2375
sg17
F257817.0
sg18
F0.23289074022706455
sg19
F42.13095238095238
sg20
F1154065.8785046728
sg21
F1.0
sg22
F275734.376344086
sg23
F182466.0
sg24
F0.1846258858185806
sg25
F257817.0
sg26
F0.6124139535582868
ssS'HUGHES JAMES A'
p253
(dp254
g3
F719.0
sg4
F690646.1081081082
sg5
F53839.37634408602
sg6
F0.0
sg7
F-521774.0425531915
sg8
F35.0
sg9
F0.048678720445062586
sg10
I00
sg11
F589.0
sg12
F34.0
sg13
F391555.2
sg14
F732889.328125
sg15
F0.8191933240611962
sg16
F1191795.2375
sg17
F1118394.0
sg18
F0.23289074022706455
sg19
F5.0
sg20
F363428.0
sg21
F0.6750447516706992
sg22
F275734.376344086
sg23
F2398323.0
sg24
F0.14705882352941177
sg25
F754966.0
sg26
F0.6124139535582868
ssS'REYNOLDS LAWRENCE'
p255
(dp256
g3
F2078.0238095238096
sg4
F51365.0
sg5
F8409.0
sg6
F0.0
sg7
F-200000.0
sg8
F63.55952380952381
sg9
F0.03798717882302457
sg10
I00
sg11
F1163.5
sg12
F622.6904761904761
sg13
F202052.0
sg14
F156250.0
sg15
F0.60219169025735
sg16
F100000.0
sg17
F4221891.0
sg18
F0.1936726028265416
sg19
F42.13095238095238
sg20
F201483.0
sg21
F0.9854996256416853
sg22
F76399.0
sg23
F394475.0
sg24
F0.1846258858185806
sg25
F4160672.0
sg26
F0.2535014893212498
ssS'DIMICHELE RICHARD G'
p257
(dp258
g3
F2078.0238095238096
sg4
F690646.1081081082
sg5
F35812.0
sg6
F0.0
sg7
F-521774.0425531915
sg8
F63.55952380952381
sg9
F0.03798717882302457
sg10
I00
sg11
F1163.5
sg12
F622.6904761904761
sg13
F374689.0
sg14
F694862.0
sg15
F0.60219169025735
sg16
F1000000.0
sg17
F8317782.0
sg18
F0.11096758610409556
sg19
F42.13095238095238
sg20
F126027.0
sg21
F0.9848484848484849
sg22
F262788.0
sg23
F2368151.0
sg24
F0.1846258858185806
sg25
F8191755.0
sg26
F0.42227037042823706
ssS'CARTER REBECCA C'
p259
(dp260
g3
F312.0
sg4
F690646.1081081082
sg5
F53839.37634408602
sg6
F0.0
sg7
F-159792.0
sg8
F29.0
sg9
F0.09294871794871795
sg10
I00
sg11
F196.0
sg12
F15.0
sg13
F540.0
sg14
F75000.0
sg15
F0.6282051282051282
sg16
F300000.0
sg17
F3261185.0241935486
sg18
F0.5482256568325875
sg19
F7.0
sg20
F307301.0
sg21
F0.7184999490720799
sg22
F261809.0
sg23
F477557.0
sg24
F0.4666666666666667
sg25
F2887651.282828283
sg26
F0.6281972623163308
ssS'BUCHANAN HAROLD G'
p261
(dp262
g3
F1088.0
sg4
F690646.1081081082
sg5
F600.0
sg6
F0.0
sg7
F-521774.0425531915
sg8
F0.0
sg9
F0.0
sg10
I00
sg11
F23.0
sg12
F125.0
sg13
F1215.0
sg14
F304805.0
sg15
F0.021139705882352942
sg16
F500000.0
sg17
F1014505.0
sg18
F0.23516811945721608
sg19
F0.0
sg20
F189041.0
sg21
F0.8136618350821336
sg22
F248017.0
sg23
F1054637.0
sg24
F0.0
sg25
F825464.0
sg26
F0.47409677453000415
ssS'YEAP SOON'
p263
(dp264
g3
F2078.0238095238096
sg4
F690646.1081081082
sg5
F55097.0
sg6
F0.0
sg7
F-521774.0425531915
sg8
F63.55952380952381
sg9
F0.03798717882302457
sg10
I00
sg11
F1163.5
sg12
F622.6904761904761
sg13
F391555.2
sg14
F732889.328125
sg15
F0.60219169025735
sg16
F1191795.2375
sg17
F192758.0
sg18
F0.23289074022706455
sg19
F42.13095238095238
sg20
F1154065.8785046728
sg21
F1.0
sg22
F275734.376344086
sg23
F55097.0
sg24
F0.1846258858185806
sg25
F192758.0
sg26
F0.6124139535582868
ssS'MURRAY JULIA H'
p265
(dp266
g3
F2192.0
sg4
F690646.1081081082
sg5
F57580.0
sg6
F0.0
sg7
F-521774.0425531915
sg8
F11.0
sg9
F0.005018248175182482
sg10
I00
sg11
F395.0
sg12
F45.0
sg13
F330.0
sg14
F125000.0
sg15
F0.1802007299270073
sg16
F400000.0
sg17
F597461.0
sg18
F0.2823020115883644
sg19
F2.0
sg20
F196983.0
sg21
F0.6702998187329382
sg22
F229284.0
sg23
F812194.0
sg24
F0.044444444444444446
sg25
F400478.0
sg26
F0.4924931728133919
ssS'GARLAND C KEVIN'
p267
(dp268
g3
F209.0
sg4
F690646.1081081082
sg5
F48405.0
sg6
F0.0
sg7
F-521774.0425531915
sg8
F10.0
sg9
F0.04784688995215311
sg10
I00
sg11
F178.0
sg12
F44.0
sg13
F60814.0
sg14
F375304.0
sg15
F0.8516746411483254
sg16
F850000.0
sg17
F896153.0
sg18
F0.14806932023551056
sg19
F27.0
sg20
F259907.0
sg21
F0.7099747476156415
sg22
F231946.0
sg23
F1566469.0
sg24
F0.6136363636363636
sg25
F636246.0
sg26
F0.5426216541789208
ssS'DODSON KEITH'
p269
(dp270
g3
F176.0
sg4
F690646.1081081082
sg5
F28164.0
sg6
F0.0
sg7
F-521774.0425531915
sg8
F10.0
sg9
F0.056818181818181816
sg10
I00
sg11
F114.0
sg12
F14.0
sg13
F774.0
sg14
F732889.328125
sg15
F0.6477272727272727
sg16
F70000.0
sg17
F3261185.0241935486
sg18
F0.6907617341947422
sg19
F3.0
sg20
F1154065.8785046728
sg21
F0.7184999490720799
sg22
F221003.0
sg23
F319941.0
sg24
F0.21428571428571427
sg25
F2887651.282828283
sg26
F0.21879033946883958
ssS'YEAGER F SCOTT'
p271
(dp272
g3
F2078.0238095238096
sg4
F690646.1081081082
sg5
F53947.0
sg6
F1.0
sg7
F-521774.0425531915
sg8
F63.55952380952381
sg9
F0.03798717882302457
sg10
I00
sg11
F1163.5
sg12
F622.6904761904761
sg13
F147950.0
sg14
F732889.328125
sg15
F0.60219169025735
sg16
F1191795.2375
sg17
F11884758.0
sg18
F0.4396419650291424
sg19
F42.13095238095238
sg20
F3576206.0
sg21
F0.6990930736662875
sg22
F158403.0
sg23
F360300.0
sg24
F0.1846258858185806
sg25
F8308552.0
sg26
F0.6124139535582868
ssS'HIRKO JOSEPH'
p273
(dp274
g3
F2078.0238095238096
sg4
F10259.0
sg5
F77978.0
sg6
F1.0
sg7
F-521774.0425531915
sg8
F63.55952380952381
sg9
F0.03798717882302457
sg10
I00
sg11
F1163.5
sg12
F622.6904761904761
sg13
F2856.0
sg14
F732889.328125
sg15
F0.60219169025735
sg16
F1191795.2375
sg17
F30766064.0
sg18
F0.23289074022706455
sg19
F42.13095238095238
sg20
F1154065.8785046728
sg21
F1.0
sg22
F275734.376344086
sg23
F91093.0
sg24
F0.1846258858185806
sg25
F30766064.0
sg26
F0.6124139535582868
ssS'DIETRICH JANET R'
p275
(dp276
g3
F2572.0
sg4
F690646.1081081082
sg5
F3475.0
sg6
F0.0
sg7
F-521774.0425531915
sg8
F305.0
sg9
F0.11858475894245724
sg10
I01
sg11
F1902.0
sg12
F63.0
sg13
F473.0
sg14
F556416.0
sg15
F0.73950233281493
sg16
F600000.0
sg17
F1865087.0
sg18
F0.1773175352224516
sg19
F14.0
sg20
F315068.0
sg21
F0.8310706149364614
sg22
F250100.0
sg23
F1410464.0
sg24
F0.2222222222222222
sg25
F1550019.0
sg26
F0.4253919277627788
ssS'DERRICK JR. JAMES V'
p277
(dp278
g3
F2181.0
sg4
F690646.1081081082
sg5
F51124.0
sg6
F0.0
sg7
F-1284000.0
sg8
F64.0
sg9
F0.029344337459880788
sg10
I00
sg11
F1401.0
sg12
F909.0
sg13
F7482.0
sg14
F484000.0
sg15
F0.6423658872077029
sg16
F800000.0
sg17
F8831913.0
sg18
F0.8936333557781484
sg19
F20.0
sg20
F1787380.0
sg21
F1.0
sg22
F492375.0
sg23
F550981.0
sg24
F0.022002200220022004
sg25
F8831913.0
sg26
F1.4519556935720106
ssS'PAI LOU L'
p279
(dp280
g3
F2078.0238095238096
sg4
F690646.1081081082
sg5
F32047.0
sg6
F0.0
sg7
F-521774.0425531915
sg8
F63.55952380952381
sg9
F0.03798717882302457
sg10
I00
sg11
F1163.5
sg12
F622.6904761904761
sg13
F1829457.0
sg14
F732889.328125
sg15
F0.60219169025735
sg16
F1000000.0
sg17
F23817930.0
sg18
F0.08384466458324195
sg19
F42.13095238095238
sg20
F8453763.0
sg21
F0.6450672665508715
sg22
F261879.0
sg23
F3123383.0
sg24
F0.1846258858185806
sg25
F15364167.0
sg26
F0.3201656665224854
ssS'BAY FRANKLIN R'
p281
(dp282
g3
F2078.0238095238096
sg4
F260455.0
sg5
F129142.0
sg6
F0.0
sg7
F-201641.0
sg8
F63.55952380952381
sg9
F0.03798717882302457
sg10
I00
sg11
F1163.5
sg12
F622.6904761904761
sg13
F69.0
sg14
F732889.328125
sg15
F0.60219169025735
sg16
F400000.0
sg17
F63014.0
sg18
F0.2895640428369836
sg19
F42.13095238095238
sg20
F145796.0
sg21
F0.7184999490720799
sg22
F239671.0
sg23
F827696.0
sg24
F0.1846258858185806
sg25
F2887651.282828283
sg26
F0.48326921961686414
ssS'MCCARTY DANNY J'
p283
(dp284
g3
F1433.0
sg4
F690646.1081081082
sg5
F53839.37634408602
sg6
F0.0
sg7
F-521774.0425531915
sg8
F25.0
sg9
F0.017445917655268667
sg10
I00
sg11
F508.0
sg12
F215.0
sg13
F391555.2
sg14
F732889.328125
sg15
F0.35450104675505933
sg16
F1191795.2375
sg17
F758931.0
sg18
F0.23289074022706455
sg19
F2.0
sg20
F94556.0
sg21
F0.8754089633971995
sg22
F275734.376344086
sg23
F2398323.0
sg24
F0.009302325581395349
sg25
F664375.0
sg26
F0.6124139535582868
ssS'FUGH JOHN L'
p285
(dp286
g3
F2078.0238095238096
sg4
F50591.0
sg5
F53839.37634408602
sg6
F0.0
sg7
F-521774.0425531915
sg8
F63.55952380952381
sg9
F0.03798717882302457
sg10
I00
sg11
F1163.5
sg12
F622.6904761904761
sg13
F391555.2
sg14
F732889.328125
sg15
F0.60219169025735
sg16
F1191795.2375
sg17
F176378.0
sg18
F0.23289074022706455
sg19
F42.13095238095238
sg20
F1154065.8785046728
sg21
F1.0
sg22
F275734.376344086
sg23
F50591.0
sg24
F0.1846258858185806
sg25
F176378.0
sg26
F0.6124139535582868
ssS'FALLON JAMES B'
p287
(dp288
g3
F1755.0
sg4
F690646.1081081082
sg5
F95924.0
sg6
F0.0
sg7
F-521774.0425531915
sg8
F42.0
sg9
F0.023931623931623933
sg10
I00
sg11
F1604.0
sg12
F75.0
sg13
F401481.0
sg14
F374347.0
sg15
F0.913960113960114
sg16
F2500000.0
sg17
F2332399.0
sg18
F0.08285087886321722
sg19
F37.0
sg20
F1392142.0
sg21
F0.40312870996771993
sg22
F304588.0
sg23
F3676340.0
sg24
F0.49333333333333335
sg25
F940257.0
sg26
F0.6800241544579664
ssS'KOENIG MARK E'
p289
(dp290
g3
F2374.0
sg4
F690646.1081081082
sg5
F127017.0
sg6
F1.0
sg7
F-521774.0425531915
sg8
F53.0
sg9
F0.02232518955349621
sg10
I00
sg11
F2271.0
sg12
F61.0
sg13
F150458.0
sg14
F300000.0
sg15
F0.9566133108677338
sg16
F700000.0
sg17
F1920055.0
sg18
F0.19525129124535962
sg19
F15.0
sg20
F1248318.0
sg21
F0.3498529990026327
sg22
F309946.0
sg23
F1587421.0
sg24
F0.2459016393442623
sg25
F671737.0
sg26
F0.44096682606567505
ssS'SAVAGE FRANK'
p291
(dp292
g3
F2078.0238095238096
sg4
F690646.1081081082
sg5
F53839.37634408602
sg6
F0.0
sg7
F-121284.0
sg8
F63.55952380952381
sg9
F0.03798717882302457
sg10
I00
sg11
F1163.5
sg12
F622.6904761904761
sg13
F391555.2
sg14
F732889.328125
sg15
F0.60219169025735
sg16
F1191795.2375
sg17
F3261185.0241935486
sg18
F0.23289074022706455
sg19
F42.13095238095238
sg20
F1154065.8785046728
sg21
F0.7184999490720799
sg22
F275734.376344086
sg23
F3750.0
sg24
F0.1846258858185806
sg25
F2887651.282828283
sg26
F0.6124139535582868
ssS'IZZO LAWRENCE L'
p293
(dp294
g3
F496.0
sg4
F690646.1081081082
sg5
F28093.0
sg6
F0.0
sg7
F-521774.0425531915
sg8
F28.0
sg9
F0.056451612903225805
sg10
I00
sg11
F437.0
sg12
F19.0
sg13
F1553729.0
sg14
F312500.0
sg15
F0.8810483870967742
sg16
F1191795.2375
sg17
F5819980.0
sg18
F0.043076466107225916
sg19
F5.0
sg20
F3654808.0
sg21
F0.3720239588452194
sg22
F85274.0
sg23
F1979596.0
sg24
F0.2631578947368421
sg25
F2165172.0
sg26
F0.6124139535582868
ssS'TILNEY ELIZABETH A'
p295
(dp296
g3
F460.0
sg4
F690646.1081081082
sg5
F53839.37634408602
sg6
F0.0
sg7
F-575000.0
sg8
F10.0
sg9
F0.021739130434782608
sg10
I00
sg11
F379.0
sg12
F19.0
sg13
F152055.0
sg14
F275000.0
sg15
F0.8239130434782609
sg16
F300000.0
sg17
F1168042.0
sg18
F0.6192847646303266
sg19
F11.0
sg20
F576792.0
sg21
F0.5061889897794771
sg22
F247338.0
sg23
F399393.0
sg24
F0.5789473684210527
sg25
F591250.0
sg26
F0.7511398547295521
ssS'MARTIN AMANDA K'
p297
(dp298
g3
F1522.0
sg4
F85430.0
sg5
F8211.0
sg6
F0.0
sg7
F-521774.0425531915
sg8
F8.0
sg9
F0.005256241787122208
sg10
I00
sg11
F477.0
sg12
F230.0
sg13
F2818454.0
sg14
F5145434.0
sg15
F0.31340341655716164
sg16
F1191795.2375
sg17
F2070306.0
sg18
F0.04157087366076144
sg19
F0.0
sg20
F1154065.8785046728
sg21
F1.0
sg22
F349487.0
sg23
F8407016.0
sg24
F0.0
sg25
F2070306.0
sg26
F0.6124139535582868
ssS'BUY RICHARD B'
p299
(dp300
g3
F3523.0
sg4
F649584.0
sg5
F53839.37634408602
sg6
F0.0
sg7
F-694862.0
sg8
F156.0
sg9
F0.04428044280442804
sg10
I00
sg11
F2333.0
sg12
F1053.0
sg13
F400572.0
sg14
F769862.0
sg15
F0.6622196991200682
sg16
F900000.0
sg17
F3444470.0
sg18
F0.14031740856865596
sg19
F71.0
sg20
F901657.0
sg21
F0.7382305550636237
sg22
F330546.0
sg23
F2355702.0
sg24
F0.06742640075973409
sg25
F2542813.0
sg26
F0.38205171961479
ssS'GRAMM WENDY L'
p301
(dp302
g3
F2078.0238095238096
sg4
F690646.1081081082
sg5
F53839.37634408602
sg6
F0.0
sg7
F-521774.0425531915
sg8
F63.55952380952381
sg9
F0.03798717882302457
sg10
I00
sg11
F1163.5
sg12
F622.6904761904761
sg13
F391555.2
sg14
F732889.328125
sg15
F0.60219169025735
sg16
F1191795.2375
sg17
F3261185.0241935486
sg18
F0.23289074022706455
sg19
F42.13095238095238
sg20
F1154065.8785046728
sg21
F0.7184999490720799
sg22
F275734.376344086
sg23
F119292.0
sg24
F0.1846258858185806
sg25
F2887651.282828283
sg26
F0.6124139535582868
ssS'CAUSEY RICHARD A'
p303
(dp304
g3
F1892.0
sg4
F690646.1081081082
sg5
F30674.0
sg6
F1.0
sg7
F-235000.0
sg8
F58.0
sg9
F0.0306553911205074
sg10
I00
sg11
F1585.0
sg12
F49.0
sg13
F307895.0
sg14
F350000.0
sg15
F0.837737843551797
sg16
F1000000.0
sg17
F2502063.0
sg18
F0.22217376460729532
sg19
F12.0
sg20
F2502063.0
sg21
F0.7184999490720799
sg22
F415189.0
sg23
F1868758.0
sg24
F0.24489795918367346
sg25
F2887651.282828283
sg26
F0.5351147660638778
ssS'TAYLOR MITCHELL S'
p305
(dp306
g3
F533.0
sg4
F227449.0
sg5
F53839.37634408602
sg6
F0.0
sg7
F-521774.0425531915
sg8
F0.0
sg9
F0.0
sg10
I00
sg11
F300.0
sg12
F29.0
sg13
F391555.2
sg14
F732889.328125
sg15
F0.5628517823639775
sg16
F600000.0
sg17
F3745048.0
sg18
F0.24272259607948654
sg19
F0.0
sg20
F563798.0
sg21
F0.849455067064561
sg22
F265214.0
sg23
F1092663.0
sg24
F0.0
sg25
F3181250.0
sg26
F0.5491171568910085
ssS'DONAHUE JR JEFFREY M'
p307
(dp308
g3
F865.0
sg4
F690646.1081081082
sg5
F96268.0
sg6
F0.0
sg7
F-300000.0
sg8
F188.0
sg9
F0.21734104046242775
sg10
I00
sg11
F772.0
sg12
F22.0
sg13
F891.0
sg14
F732889.328125
sg15
F0.892485549132948
sg16
F800000.0
sg17
F1080988.0
sg18
F0.3181248287201973
sg19
F11.0
sg20
F315068.0
sg21
F0.7085370050361336
sg22
F278601.0
sg23
F875760.0
sg24
F0.5
sg25
F765920.0
sg26
F0.9134922809902256
ssS'GLISAN JR BEN F'
p309
(dp310
g3
F873.0
sg4
F690646.1081081082
sg5
F125978.0
sg6
F1.0
sg7
F-521774.0425531915
sg8
F52.0
sg9
F0.05956471935853379
sg10
I00
sg11
F874.0
sg12
F16.0
sg13
F200308.0
sg14
F71023.0
sg15
F1.0011454753722795
sg16
F600000.0
sg17
F778546.0
sg18
F0.21612705968164342
sg19
F6.0
sg20
F393818.0
sg21
F0.49416219465516487
sg22
F274975.0
sg23
F1272284.0
sg24
F0.375
sg25
F384728.0
sg26
F0.4715928204709012
ss.